
PS-010.elf:     file format elf32-littlearm

Sections:
Idx Name          Size      VMA       LMA       File off  Algn
  0 .text         0000407c  00000000  00000000  00010000  2**2
                  CONTENTS, ALLOC, LOAD, READONLY, CODE
  1 .relocate     00000078  20000000  0000407c  00020000  2**2
                  CONTENTS, ALLOC, LOAD, DATA
  2 .bss          00000538  20000078  000040f4  00020078  2**2
                  ALLOC
  3 .stack        00001000  200005b0  0000462c  00020078  2**0
                  ALLOC
  4 .ARM.attributes 00000028  00000000  00000000  00020078  2**0
                  CONTENTS, READONLY
  5 .comment      00000059  00000000  00000000  000200a0  2**0
                  CONTENTS, READONLY
  6 .debug_info   0002d416  00000000  00000000  000200f9  2**0
                  CONTENTS, READONLY, DEBUGGING
  7 .debug_abbrev 00003946  00000000  00000000  0004d50f  2**0
                  CONTENTS, READONLY, DEBUGGING
  8 .debug_loc    0001071e  00000000  00000000  00050e55  2**0
                  CONTENTS, READONLY, DEBUGGING
  9 .debug_aranges 00000ce0  00000000  00000000  00061573  2**0
                  CONTENTS, READONLY, DEBUGGING
 10 .debug_ranges 000011b0  00000000  00000000  00062253  2**0
                  CONTENTS, READONLY, DEBUGGING
 11 .debug_macro  000216b7  00000000  00000000  00063403  2**0
                  CONTENTS, READONLY, DEBUGGING
 12 .debug_line   00014fae  00000000  00000000  00084aba  2**0
                  CONTENTS, READONLY, DEBUGGING
 13 .debug_str    0009e9fc  00000000  00000000  00099a68  2**0
                  CONTENTS, READONLY, DEBUGGING
 14 .debug_frame  00002a8c  00000000  00000000  00138464  2**2
                  CONTENTS, READONLY, DEBUGGING

Disassembly of section .text:

00000000 <exception_table>:
       0:	b0 15 00 20 35 01 00 00 31 01 00 00 31 01 00 00     ... 5...1...1...
	...
      2c:	31 01 00 00 00 00 00 00 00 00 00 00 31 01 00 00     1...........1...
      3c:	31 01 00 00 31 01 00 00 31 01 00 00 31 01 00 00     1...1...1...1...
      4c:	31 01 00 00 31 01 00 00 31 01 00 00 31 01 00 00     1...1...1...1...
      5c:	31 01 00 00 31 01 00 00 31 01 00 00 31 01 00 00     1...1...1...1...
      6c:	31 01 00 00 31 01 00 00 31 01 00 00 31 01 00 00     1...1...1...1...
      7c:	05 0f 00 00 31 01 00 00 31 01 00 00 31 01 00 00     ....1...1...1...
      8c:	31 01 00 00 31 01 00 00 31 01 00 00 31 01 00 00     1...1...1...1...
      9c:	31 01 00 00 31 01 00 00 31 01 00 00 31 01 00 00     1...1...1...1...
      ac:	31 01 00 00 31 01 00 00 31 01 00 00 31 01 00 00     1...1...1...1...

000000bc <__do_global_dtors_aux>:
      bc:	b510      	push	{r4, lr}
      be:	4c06      	ldr	r4, [pc, #24]	; (d8 <__do_global_dtors_aux+0x1c>)
      c0:	7823      	ldrb	r3, [r4, #0]
      c2:	2b00      	cmp	r3, #0
      c4:	d107      	bne.n	d6 <__do_global_dtors_aux+0x1a>
      c6:	4b05      	ldr	r3, [pc, #20]	; (dc <__do_global_dtors_aux+0x20>)
      c8:	2b00      	cmp	r3, #0
      ca:	d002      	beq.n	d2 <__do_global_dtors_aux+0x16>
      cc:	4804      	ldr	r0, [pc, #16]	; (e0 <__do_global_dtors_aux+0x24>)
      ce:	e000      	b.n	d2 <__do_global_dtors_aux+0x16>
      d0:	bf00      	nop
      d2:	2301      	movs	r3, #1
      d4:	7023      	strb	r3, [r4, #0]
      d6:	bd10      	pop	{r4, pc}
      d8:	20000078 	.word	0x20000078
      dc:	00000000 	.word	0x00000000
      e0:	0000407c 	.word	0x0000407c

000000e4 <frame_dummy>:
      e4:	4b08      	ldr	r3, [pc, #32]	; (108 <frame_dummy+0x24>)
      e6:	b510      	push	{r4, lr}
      e8:	2b00      	cmp	r3, #0
      ea:	d003      	beq.n	f4 <frame_dummy+0x10>
      ec:	4907      	ldr	r1, [pc, #28]	; (10c <frame_dummy+0x28>)
      ee:	4808      	ldr	r0, [pc, #32]	; (110 <frame_dummy+0x2c>)
      f0:	e000      	b.n	f4 <frame_dummy+0x10>
      f2:	bf00      	nop
      f4:	4807      	ldr	r0, [pc, #28]	; (114 <frame_dummy+0x30>)
      f6:	6803      	ldr	r3, [r0, #0]
      f8:	2b00      	cmp	r3, #0
      fa:	d100      	bne.n	fe <frame_dummy+0x1a>
      fc:	bd10      	pop	{r4, pc}
      fe:	4b06      	ldr	r3, [pc, #24]	; (118 <frame_dummy+0x34>)
     100:	2b00      	cmp	r3, #0
     102:	d0fb      	beq.n	fc <frame_dummy+0x18>
     104:	4798      	blx	r3
     106:	e7f9      	b.n	fc <frame_dummy+0x18>
     108:	00000000 	.word	0x00000000
     10c:	2000007c 	.word	0x2000007c
     110:	0000407c 	.word	0x0000407c
     114:	0000407c 	.word	0x0000407c
     118:	00000000 	.word	0x00000000

0000011c <atmel_start_init>:

/**
 * Initializes MCU, drivers and middleware in the project
 **/
void atmel_start_init(void)
{
     11c:	b510      	push	{r4, lr}
	system_init();
     11e:	4b02      	ldr	r3, [pc, #8]	; (128 <atmel_start_init+0xc>)
     120:	4798      	blx	r3
	stdio_redirect_init();
     122:	4b02      	ldr	r3, [pc, #8]	; (12c <atmel_start_init+0x10>)
     124:	4798      	blx	r3
}
     126:	bd10      	pop	{r4, pc}
     128:	000005c5 	.word	0x000005c5
     12c:	000015b5 	.word	0x000015b5

00000130 <Dummy_Handler>:
 */
void Dummy_Handler(void)
{
        //while (1) {
        //}
}
     130:	4770      	bx	lr
	...

00000134 <Reset_Handler>:
{
     134:	b510      	push	{r4, lr}
        if (pSrc != pDest) {
     136:	4a17      	ldr	r2, [pc, #92]	; (194 <Reset_Handler+0x60>)
     138:	4b17      	ldr	r3, [pc, #92]	; (198 <Reset_Handler+0x64>)
     13a:	429a      	cmp	r2, r3
     13c:	d011      	beq.n	162 <Reset_Handler+0x2e>
                for (; pDest < &_erelocate;) {
     13e:	001a      	movs	r2, r3
     140:	4b16      	ldr	r3, [pc, #88]	; (19c <Reset_Handler+0x68>)
     142:	429a      	cmp	r2, r3
     144:	d20d      	bcs.n	162 <Reset_Handler+0x2e>
     146:	4a16      	ldr	r2, [pc, #88]	; (1a0 <Reset_Handler+0x6c>)
     148:	3303      	adds	r3, #3
     14a:	1a9b      	subs	r3, r3, r2
     14c:	089b      	lsrs	r3, r3, #2
     14e:	3301      	adds	r3, #1
     150:	009b      	lsls	r3, r3, #2
     152:	2200      	movs	r2, #0
                        *pDest++ = *pSrc++;
     154:	4810      	ldr	r0, [pc, #64]	; (198 <Reset_Handler+0x64>)
     156:	490f      	ldr	r1, [pc, #60]	; (194 <Reset_Handler+0x60>)
     158:	588c      	ldr	r4, [r1, r2]
     15a:	5084      	str	r4, [r0, r2]
     15c:	3204      	adds	r2, #4
                for (; pDest < &_erelocate;) {
     15e:	429a      	cmp	r2, r3
     160:	d1fa      	bne.n	158 <Reset_Handler+0x24>
        for (pDest = &_szero; pDest < &_ezero;) {
     162:	4a10      	ldr	r2, [pc, #64]	; (1a4 <Reset_Handler+0x70>)
     164:	4b10      	ldr	r3, [pc, #64]	; (1a8 <Reset_Handler+0x74>)
     166:	429a      	cmp	r2, r3
     168:	d20a      	bcs.n	180 <Reset_Handler+0x4c>
     16a:	43d3      	mvns	r3, r2
     16c:	490e      	ldr	r1, [pc, #56]	; (1a8 <Reset_Handler+0x74>)
     16e:	185b      	adds	r3, r3, r1
     170:	2103      	movs	r1, #3
     172:	438b      	bics	r3, r1
     174:	3304      	adds	r3, #4
     176:	189b      	adds	r3, r3, r2
                *pDest++ = 0;
     178:	2100      	movs	r1, #0
     17a:	c202      	stmia	r2!, {r1}
        for (pDest = &_szero; pDest < &_ezero;) {
     17c:	4293      	cmp	r3, r2
     17e:	d1fc      	bne.n	17a <Reset_Handler+0x46>
        SCB->VTOR = ((uint32_t) pSrc & SCB_VTOR_TBLOFF_Msk);
     180:	4a0a      	ldr	r2, [pc, #40]	; (1ac <Reset_Handler+0x78>)
     182:	21ff      	movs	r1, #255	; 0xff
     184:	4b0a      	ldr	r3, [pc, #40]	; (1b0 <Reset_Handler+0x7c>)
     186:	438b      	bics	r3, r1
     188:	6093      	str	r3, [r2, #8]
        __libc_init_array();
     18a:	4b0a      	ldr	r3, [pc, #40]	; (1b4 <Reset_Handler+0x80>)
     18c:	4798      	blx	r3
        main();
     18e:	4b0a      	ldr	r3, [pc, #40]	; (1b8 <Reset_Handler+0x84>)
     190:	4798      	blx	r3
     192:	e7fe      	b.n	192 <Reset_Handler+0x5e>
     194:	0000407c 	.word	0x0000407c
     198:	20000000 	.word	0x20000000
     19c:	20000078 	.word	0x20000078
     1a0:	20000004 	.word	0x20000004
     1a4:	20000078 	.word	0x20000078
     1a8:	200005b0 	.word	0x200005b0
     1ac:	e000ed00 	.word	0xe000ed00
     1b0:	00000000 	.word	0x00000000
     1b4:	00002d05 	.word	0x00002d05
     1b8:	000013f1 	.word	0x000013f1

000001bc <ADC_0_PORT_init>:
struct usart_sync_descriptor DEBUG_UART;

struct temp_sync_descriptor TEMPERATURE_SENSOR_0;

void ADC_0_PORT_init(void)
{
     1bc:	b5f0      	push	{r4, r5, r6, r7, lr}
     1be:	46de      	mov	lr, fp
     1c0:	4657      	mov	r7, sl
     1c2:	464e      	mov	r6, r9
     1c4:	4645      	mov	r5, r8
     1c6:	b5e0      	push	{r5, r6, r7, lr}
     1c8:	b083      	sub	sp, #12
	((Port *)hw)->Group[submodule_index].DIRCLR.reg = ~data;
}

static inline void hri_port_clear_DIR_reg(const void *const hw, uint8_t submodule_index, hri_port_dir_reg_t mask)
{
	((Port *)hw)->Group[submodule_index].DIRCLR.reg = mask;
     1ca:	24c0      	movs	r4, #192	; 0xc0
     1cc:	05e4      	lsls	r4, r4, #23
     1ce:	2304      	movs	r3, #4
     1d0:	6063      	str	r3, [r4, #4]

static inline void hri_port_write_WRCONFIG_reg(const void *const hw, uint8_t submodule_index,
                                               hri_port_wrconfig_reg_t data)
{
	PORT_CRITICAL_SECTION_ENTER();
	((Port *)hw)->Group[submodule_index].WRCONFIG.reg = data;
     1d2:	2382      	movs	r3, #130	; 0x82
     1d4:	05db      	lsls	r3, r3, #23
     1d6:	4a89      	ldr	r2, [pc, #548]	; (3fc <ADC_0_PORT_init+0x240>)
     1d8:	629a      	str	r2, [r3, #40]	; 0x28
     1da:	20c0      	movs	r0, #192	; 0xc0
     1dc:	0600      	lsls	r0, r0, #24
     1de:	6298      	str	r0, [r3, #40]	; 0x28
	tmp = ((Port *)hw)->Group[submodule_index].PINCFG[index].reg;
     1e0:	2642      	movs	r6, #66	; 0x42
     1e2:	5d9d      	ldrb	r5, [r3, r6]
	tmp &= ~PORT_PINCFG_PMUXEN;
     1e4:	2101      	movs	r1, #1
     1e6:	438d      	bics	r5, r1
	tmp |= value << PORT_PINCFG_PMUXEN_Pos;
     1e8:	2201      	movs	r2, #1
     1ea:	4315      	orrs	r5, r2
     1ec:	b2ed      	uxtb	r5, r5
	((Port *)hw)->Group[submodule_index].PINCFG[index].reg = tmp;
     1ee:	559d      	strb	r5, [r3, r6]
	tmp = ((Port *)hw)->Group[submodule_index].PMUX[index].reg;
     1f0:	2531      	movs	r5, #49	; 0x31
     1f2:	5d5e      	ldrb	r6, [r3, r5]
	tmp &= ~PORT_PMUX_PMUXE_Msk;
     1f4:	3d22      	subs	r5, #34	; 0x22
     1f6:	46a9      	mov	r9, r5
     1f8:	43ae      	bics	r6, r5
	tmp |= PORT_PMUX_PMUXE(data);
     1fa:	4316      	orrs	r6, r2
     1fc:	b2f6      	uxtb	r6, r6
	((Port *)hw)->Group[submodule_index].PMUX[index].reg = tmp;
     1fe:	3522      	adds	r5, #34	; 0x22
     200:	555e      	strb	r6, [r3, r5]
	((Port *)hw)->Group[submodule_index].DIRCLR.reg = mask;
     202:	2610      	movs	r6, #16
     204:	6066      	str	r6, [r4, #4]
	((Port *)hw)->Group[submodule_index].WRCONFIG.reg = data;
     206:	4e7e      	ldr	r6, [pc, #504]	; (400 <ADC_0_PORT_init+0x244>)
     208:	629e      	str	r6, [r3, #40]	; 0x28
     20a:	6298      	str	r0, [r3, #40]	; 0x28
	tmp = ((Port *)hw)->Group[submodule_index].PINCFG[index].reg;
     20c:	2744      	movs	r7, #68	; 0x44
     20e:	5dde      	ldrb	r6, [r3, r7]
	tmp &= ~PORT_PINCFG_PMUXEN;
     210:	438e      	bics	r6, r1
	tmp |= value << PORT_PINCFG_PMUXEN_Pos;
     212:	4316      	orrs	r6, r2
     214:	b2f6      	uxtb	r6, r6
	((Port *)hw)->Group[submodule_index].PINCFG[index].reg = tmp;
     216:	55de      	strb	r6, [r3, r7]
	tmp = ((Port *)hw)->Group[submodule_index].PMUX[index].reg;
     218:	3501      	adds	r5, #1
     21a:	46a8      	mov	r8, r5
     21c:	5d5e      	ldrb	r6, [r3, r5]
	tmp &= ~PORT_PMUX_PMUXE_Msk;
     21e:	464d      	mov	r5, r9
     220:	43ae      	bics	r6, r5
	tmp |= PORT_PMUX_PMUXE(data);
     222:	4316      	orrs	r6, r2
     224:	b2f6      	uxtb	r6, r6
	((Port *)hw)->Group[submodule_index].PMUX[index].reg = tmp;
     226:	4645      	mov	r5, r8
     228:	555e      	strb	r6, [r3, r5]
	((Port *)hw)->Group[submodule_index].DIRCLR.reg = mask;
     22a:	2620      	movs	r6, #32
     22c:	6066      	str	r6, [r4, #4]
	((Port *)hw)->Group[submodule_index].WRCONFIG.reg = data;
     22e:	4e75      	ldr	r6, [pc, #468]	; (404 <ADC_0_PORT_init+0x248>)
     230:	629e      	str	r6, [r3, #40]	; 0x28
     232:	6298      	str	r0, [r3, #40]	; 0x28
	tmp = ((Port *)hw)->Group[submodule_index].PINCFG[index].reg;
     234:	3701      	adds	r7, #1
     236:	5dde      	ldrb	r6, [r3, r7]
	tmp &= ~PORT_PINCFG_PMUXEN;
     238:	438e      	bics	r6, r1
	tmp |= value << PORT_PINCFG_PMUXEN_Pos;
     23a:	4316      	orrs	r6, r2
     23c:	b2f6      	uxtb	r6, r6
	((Port *)hw)->Group[submodule_index].PINCFG[index].reg = tmp;
     23e:	55de      	strb	r6, [r3, r7]
	tmp = ((Port *)hw)->Group[submodule_index].PMUX[index].reg;
     240:	5d5e      	ldrb	r6, [r3, r5]
	tmp &= ~PORT_PMUX_PMUXO_Msk;
     242:	3f36      	subs	r7, #54	; 0x36
     244:	403e      	ands	r6, r7
	tmp |= PORT_PMUX_PMUXO(data);
     246:	2510      	movs	r5, #16
     248:	46ab      	mov	fp, r5
     24a:	0035      	movs	r5, r6
     24c:	465e      	mov	r6, fp
     24e:	4335      	orrs	r5, r6
     250:	466e      	mov	r6, sp
     252:	71f5      	strb	r5, [r6, #7]
     254:	79f5      	ldrb	r5, [r6, #7]
     256:	46ac      	mov	ip, r5
	((Port *)hw)->Group[submodule_index].PMUX[index].reg = tmp;
     258:	4645      	mov	r5, r8
     25a:	4666      	mov	r6, ip
     25c:	555e      	strb	r6, [r3, r5]
	((Port *)hw)->Group[submodule_index].DIRCLR.reg = mask;
     25e:	350e      	adds	r5, #14
     260:	6065      	str	r5, [r4, #4]
	((Port *)hw)->Group[submodule_index].WRCONFIG.reg = data;
     262:	4d69      	ldr	r5, [pc, #420]	; (408 <ADC_0_PORT_init+0x24c>)
     264:	629d      	str	r5, [r3, #40]	; 0x28
     266:	6298      	str	r0, [r3, #40]	; 0x28
	tmp = ((Port *)hw)->Group[submodule_index].PINCFG[index].reg;
     268:	2546      	movs	r5, #70	; 0x46
     26a:	46a8      	mov	r8, r5
     26c:	5d5d      	ldrb	r5, [r3, r5]
	tmp &= ~PORT_PINCFG_PMUXEN;
     26e:	438d      	bics	r5, r1
	tmp |= value << PORT_PINCFG_PMUXEN_Pos;
     270:	4315      	orrs	r5, r2
     272:	466e      	mov	r6, sp
     274:	71f5      	strb	r5, [r6, #7]
     276:	79f5      	ldrb	r5, [r6, #7]
     278:	46ac      	mov	ip, r5
	((Port *)hw)->Group[submodule_index].PINCFG[index].reg = tmp;
     27a:	4645      	mov	r5, r8
     27c:	4666      	mov	r6, ip
     27e:	555e      	strb	r6, [r3, r5]
	tmp = ((Port *)hw)->Group[submodule_index].PMUX[index].reg;
     280:	3d13      	subs	r5, #19
     282:	46a8      	mov	r8, r5
     284:	5d5d      	ldrb	r5, [r3, r5]
	tmp &= ~PORT_PMUX_PMUXE_Msk;
     286:	464e      	mov	r6, r9
     288:	43b5      	bics	r5, r6
	tmp |= PORT_PMUX_PMUXE(data);
     28a:	4315      	orrs	r5, r2
     28c:	466e      	mov	r6, sp
     28e:	71f5      	strb	r5, [r6, #7]
     290:	79f5      	ldrb	r5, [r6, #7]
     292:	46ac      	mov	ip, r5
	((Port *)hw)->Group[submodule_index].PMUX[index].reg = tmp;
     294:	4645      	mov	r5, r8
     296:	4666      	mov	r6, ip
     298:	555e      	strb	r6, [r3, r5]
	((Port *)hw)->Group[submodule_index].DIRCLR.reg = mask;
     29a:	354d      	adds	r5, #77	; 0x4d
     29c:	6065      	str	r5, [r4, #4]
	((Port *)hw)->Group[submodule_index].WRCONFIG.reg = data;
     29e:	4d5b      	ldr	r5, [pc, #364]	; (40c <ADC_0_PORT_init+0x250>)
     2a0:	629d      	str	r5, [r3, #40]	; 0x28
     2a2:	6298      	str	r0, [r3, #40]	; 0x28
	tmp = ((Port *)hw)->Group[submodule_index].PINCFG[index].reg;
     2a4:	2547      	movs	r5, #71	; 0x47
     2a6:	46aa      	mov	sl, r5
     2a8:	5d5d      	ldrb	r5, [r3, r5]
	tmp &= ~PORT_PINCFG_PMUXEN;
     2aa:	438d      	bics	r5, r1
	tmp |= value << PORT_PINCFG_PMUXEN_Pos;
     2ac:	4315      	orrs	r5, r2
     2ae:	466e      	mov	r6, sp
     2b0:	71f5      	strb	r5, [r6, #7]
     2b2:	79f5      	ldrb	r5, [r6, #7]
     2b4:	46ac      	mov	ip, r5
	((Port *)hw)->Group[submodule_index].PINCFG[index].reg = tmp;
     2b6:	4655      	mov	r5, sl
     2b8:	4666      	mov	r6, ip
     2ba:	555e      	strb	r6, [r3, r5]
	tmp = ((Port *)hw)->Group[submodule_index].PMUX[index].reg;
     2bc:	4645      	mov	r5, r8
     2be:	5d5d      	ldrb	r5, [r3, r5]
	tmp &= ~PORT_PMUX_PMUXO_Msk;
     2c0:	403d      	ands	r5, r7
	tmp |= PORT_PMUX_PMUXO(data);
     2c2:	465e      	mov	r6, fp
     2c4:	4335      	orrs	r5, r6
     2c6:	466e      	mov	r6, sp
     2c8:	71f5      	strb	r5, [r6, #7]
     2ca:	79f5      	ldrb	r5, [r6, #7]
     2cc:	46ac      	mov	ip, r5
	((Port *)hw)->Group[submodule_index].PMUX[index].reg = tmp;
     2ce:	4645      	mov	r5, r8
     2d0:	4666      	mov	r6, ip
     2d2:	555e      	strb	r6, [r3, r5]
	((Port *)hw)->Group[submodule_index].DIRCLR.reg = mask;
     2d4:	35cd      	adds	r5, #205	; 0xcd
     2d6:	6065      	str	r5, [r4, #4]
	((Port *)hw)->Group[submodule_index].WRCONFIG.reg = data;
     2d8:	4d4d      	ldr	r5, [pc, #308]	; (410 <ADC_0_PORT_init+0x254>)
     2da:	629d      	str	r5, [r3, #40]	; 0x28
     2dc:	6298      	str	r0, [r3, #40]	; 0x28
	tmp = ((Port *)hw)->Group[submodule_index].PINCFG[index].reg;
     2de:	2548      	movs	r5, #72	; 0x48
     2e0:	46a8      	mov	r8, r5
     2e2:	5d5d      	ldrb	r5, [r3, r5]
	tmp &= ~PORT_PINCFG_PMUXEN;
     2e4:	438d      	bics	r5, r1
	tmp |= value << PORT_PINCFG_PMUXEN_Pos;
     2e6:	4315      	orrs	r5, r2
     2e8:	466e      	mov	r6, sp
     2ea:	71f5      	strb	r5, [r6, #7]
     2ec:	79f5      	ldrb	r5, [r6, #7]
     2ee:	46ac      	mov	ip, r5
	((Port *)hw)->Group[submodule_index].PINCFG[index].reg = tmp;
     2f0:	4645      	mov	r5, r8
     2f2:	4666      	mov	r6, ip
     2f4:	555e      	strb	r6, [r3, r5]
	tmp = ((Port *)hw)->Group[submodule_index].PMUX[index].reg;
     2f6:	3d14      	subs	r5, #20
     2f8:	46a8      	mov	r8, r5
     2fa:	5d5d      	ldrb	r5, [r3, r5]
	tmp &= ~PORT_PMUX_PMUXE_Msk;
     2fc:	464e      	mov	r6, r9
     2fe:	43b5      	bics	r5, r6
	tmp |= PORT_PMUX_PMUXE(data);
     300:	4315      	orrs	r5, r2
     302:	466e      	mov	r6, sp
     304:	71f5      	strb	r5, [r6, #7]
     306:	79f5      	ldrb	r5, [r6, #7]
     308:	46ac      	mov	ip, r5
	((Port *)hw)->Group[submodule_index].PMUX[index].reg = tmp;
     30a:	4645      	mov	r5, r8
     30c:	4666      	mov	r6, ip
     30e:	555e      	strb	r6, [r3, r5]
	((Port *)hw)->Group[submodule_index].DIRCLR.reg = mask;
     310:	35cd      	adds	r5, #205	; 0xcd
     312:	35ff      	adds	r5, #255	; 0xff
     314:	6065      	str	r5, [r4, #4]
	((Port *)hw)->Group[submodule_index].WRCONFIG.reg = data;
     316:	4d3f      	ldr	r5, [pc, #252]	; (414 <ADC_0_PORT_init+0x258>)
     318:	629d      	str	r5, [r3, #40]	; 0x28
     31a:	6298      	str	r0, [r3, #40]	; 0x28
	tmp = ((Port *)hw)->Group[submodule_index].PINCFG[index].reg;
     31c:	2549      	movs	r5, #73	; 0x49
     31e:	46aa      	mov	sl, r5
     320:	5d5d      	ldrb	r5, [r3, r5]
	tmp &= ~PORT_PINCFG_PMUXEN;
     322:	438d      	bics	r5, r1
	tmp |= value << PORT_PINCFG_PMUXEN_Pos;
     324:	4315      	orrs	r5, r2
     326:	466e      	mov	r6, sp
     328:	71f5      	strb	r5, [r6, #7]
     32a:	79f5      	ldrb	r5, [r6, #7]
     32c:	46ac      	mov	ip, r5
	((Port *)hw)->Group[submodule_index].PINCFG[index].reg = tmp;
     32e:	4655      	mov	r5, sl
     330:	4666      	mov	r6, ip
     332:	555e      	strb	r6, [r3, r5]
	tmp = ((Port *)hw)->Group[submodule_index].PMUX[index].reg;
     334:	4645      	mov	r5, r8
     336:	5d5d      	ldrb	r5, [r3, r5]
	tmp &= ~PORT_PMUX_PMUXO_Msk;
     338:	403d      	ands	r5, r7
	tmp |= PORT_PMUX_PMUXO(data);
     33a:	465e      	mov	r6, fp
     33c:	4335      	orrs	r5, r6
     33e:	466e      	mov	r6, sp
     340:	71f5      	strb	r5, [r6, #7]
     342:	79f5      	ldrb	r5, [r6, #7]
     344:	46ac      	mov	ip, r5
	((Port *)hw)->Group[submodule_index].PMUX[index].reg = tmp;
     346:	4645      	mov	r5, r8
     348:	4666      	mov	r6, ip
     34a:	555e      	strb	r6, [r3, r5]
	((Port *)hw)->Group[submodule_index].DIRCLR.reg = mask;
     34c:	2580      	movs	r5, #128	; 0x80
     34e:	00ed      	lsls	r5, r5, #3
     350:	6065      	str	r5, [r4, #4]
	((Port *)hw)->Group[submodule_index].WRCONFIG.reg = data;
     352:	4d31      	ldr	r5, [pc, #196]	; (418 <ADC_0_PORT_init+0x25c>)
     354:	629d      	str	r5, [r3, #40]	; 0x28
     356:	6298      	str	r0, [r3, #40]	; 0x28
	tmp = ((Port *)hw)->Group[submodule_index].PINCFG[index].reg;
     358:	254a      	movs	r5, #74	; 0x4a
     35a:	46a8      	mov	r8, r5
     35c:	5d5d      	ldrb	r5, [r3, r5]
	tmp &= ~PORT_PINCFG_PMUXEN;
     35e:	438d      	bics	r5, r1
	tmp |= value << PORT_PINCFG_PMUXEN_Pos;
     360:	4315      	orrs	r5, r2
     362:	466e      	mov	r6, sp
     364:	71f5      	strb	r5, [r6, #7]
     366:	79f5      	ldrb	r5, [r6, #7]
     368:	46ac      	mov	ip, r5
	((Port *)hw)->Group[submodule_index].PINCFG[index].reg = tmp;
     36a:	4645      	mov	r5, r8
     36c:	4666      	mov	r6, ip
     36e:	555e      	strb	r6, [r3, r5]
	tmp = ((Port *)hw)->Group[submodule_index].PMUX[index].reg;
     370:	3d15      	subs	r5, #21
     372:	46a8      	mov	r8, r5
     374:	5d5d      	ldrb	r5, [r3, r5]
	tmp &= ~PORT_PMUX_PMUXE_Msk;
     376:	464e      	mov	r6, r9
     378:	43b5      	bics	r5, r6
	tmp |= PORT_PMUX_PMUXE(data);
     37a:	4315      	orrs	r5, r2
     37c:	466e      	mov	r6, sp
     37e:	71f5      	strb	r5, [r6, #7]
     380:	79f5      	ldrb	r5, [r6, #7]
     382:	46ac      	mov	ip, r5
	((Port *)hw)->Group[submodule_index].PMUX[index].reg = tmp;
     384:	4645      	mov	r5, r8
     386:	4666      	mov	r6, ip
     388:	555e      	strb	r6, [r3, r5]
	((Port *)hw)->Group[submodule_index].DIRCLR.reg = mask;
     38a:	2580      	movs	r5, #128	; 0x80
     38c:	012d      	lsls	r5, r5, #4
     38e:	6065      	str	r5, [r4, #4]
	((Port *)hw)->Group[submodule_index].WRCONFIG.reg = data;
     390:	4d22      	ldr	r5, [pc, #136]	; (41c <ADC_0_PORT_init+0x260>)
     392:	629d      	str	r5, [r3, #40]	; 0x28
     394:	6298      	str	r0, [r3, #40]	; 0x28
	tmp = ((Port *)hw)->Group[submodule_index].PINCFG[index].reg;
     396:	254b      	movs	r5, #75	; 0x4b
     398:	46a9      	mov	r9, r5
     39a:	5d5d      	ldrb	r5, [r3, r5]
	tmp &= ~PORT_PINCFG_PMUXEN;
     39c:	438d      	bics	r5, r1
	tmp |= value << PORT_PINCFG_PMUXEN_Pos;
     39e:	4315      	orrs	r5, r2
     3a0:	466e      	mov	r6, sp
     3a2:	71f5      	strb	r5, [r6, #7]
     3a4:	79f5      	ldrb	r5, [r6, #7]
     3a6:	46ac      	mov	ip, r5
	((Port *)hw)->Group[submodule_index].PINCFG[index].reg = tmp;
     3a8:	464d      	mov	r5, r9
     3aa:	4666      	mov	r6, ip
     3ac:	555e      	strb	r6, [r3, r5]
	tmp = ((Port *)hw)->Group[submodule_index].PMUX[index].reg;
     3ae:	4645      	mov	r5, r8
     3b0:	5d5d      	ldrb	r5, [r3, r5]
	tmp &= ~PORT_PMUX_PMUXO_Msk;
     3b2:	403d      	ands	r5, r7
	tmp |= PORT_PMUX_PMUXO(data);
     3b4:	465e      	mov	r6, fp
     3b6:	4335      	orrs	r5, r6
     3b8:	466e      	mov	r6, sp
     3ba:	71f5      	strb	r5, [r6, #7]
     3bc:	79f5      	ldrb	r5, [r6, #7]
     3be:	46ac      	mov	ip, r5
	((Port *)hw)->Group[submodule_index].PMUX[index].reg = tmp;
     3c0:	4645      	mov	r5, r8
     3c2:	4666      	mov	r6, ip
     3c4:	555e      	strb	r6, [r3, r5]
	((Port *)hw)->Group[submodule_index].DIRCLR.reg = mask;
     3c6:	3d2d      	subs	r5, #45	; 0x2d
     3c8:	6065      	str	r5, [r4, #4]
	((Port *)hw)->Group[submodule_index].WRCONFIG.reg = data;
     3ca:	4c15      	ldr	r4, [pc, #84]	; (420 <ADC_0_PORT_init+0x264>)
     3cc:	629c      	str	r4, [r3, #40]	; 0x28
     3ce:	6298      	str	r0, [r3, #40]	; 0x28
	tmp = ((Port *)hw)->Group[submodule_index].PINCFG[index].reg;
     3d0:	2443      	movs	r4, #67	; 0x43
     3d2:	5d18      	ldrb	r0, [r3, r4]
	tmp &= ~PORT_PINCFG_PMUXEN;
     3d4:	4388      	bics	r0, r1
     3d6:	0001      	movs	r1, r0
	tmp |= value << PORT_PINCFG_PMUXEN_Pos;
     3d8:	4311      	orrs	r1, r2
     3da:	b2c9      	uxtb	r1, r1
	((Port *)hw)->Group[submodule_index].PINCFG[index].reg = tmp;
     3dc:	5519      	strb	r1, [r3, r4]
	tmp = ((Port *)hw)->Group[submodule_index].PMUX[index].reg;
     3de:	2231      	movs	r2, #49	; 0x31
     3e0:	5c9a      	ldrb	r2, [r3, r2]
	tmp &= ~PORT_PMUX_PMUXO_Msk;
     3e2:	403a      	ands	r2, r7
	tmp |= PORT_PMUX_PMUXO(data);
     3e4:	4659      	mov	r1, fp
     3e6:	430a      	orrs	r2, r1
     3e8:	b2d2      	uxtb	r2, r2
	((Port *)hw)->Group[submodule_index].PMUX[index].reg = tmp;
     3ea:	2131      	movs	r1, #49	; 0x31
     3ec:	545a      	strb	r2, [r3, r1]

	// Disable digital pin circuitry
	gpio_set_pin_direction(PA03, GPIO_DIRECTION_OFF);

	gpio_set_pin_function(PA03, PINMUX_PA03B_ADC0_VREFP);
}
     3ee:	b003      	add	sp, #12
     3f0:	bc3c      	pop	{r2, r3, r4, r5}
     3f2:	4690      	mov	r8, r2
     3f4:	4699      	mov	r9, r3
     3f6:	46a2      	mov	sl, r4
     3f8:	46ab      	mov	fp, r5
     3fa:	bdf0      	pop	{r4, r5, r6, r7, pc}
     3fc:	40000004 	.word	0x40000004
     400:	40000010 	.word	0x40000010
     404:	40000020 	.word	0x40000020
     408:	40000040 	.word	0x40000040
     40c:	40000080 	.word	0x40000080
     410:	40000100 	.word	0x40000100
     414:	40000200 	.word	0x40000200
     418:	40000400 	.word	0x40000400
     41c:	40000800 	.word	0x40000800
     420:	40000008 	.word	0x40000008

00000424 <ADC_0_CLOCK_init>:
}

static inline void hri_mclk_set_APBCMASK_ADC0_bit(const void *const hw)
{
	MCLK_CRITICAL_SECTION_ENTER();
	((Mclk *)hw)->APBCMASK.reg |= MCLK_APBCMASK_ADC0;
     424:	4a05      	ldr	r2, [pc, #20]	; (43c <ADC_0_CLOCK_init+0x18>)
     426:	69d1      	ldr	r1, [r2, #28]
     428:	2380      	movs	r3, #128	; 0x80
     42a:	029b      	lsls	r3, r3, #10
     42c:	430b      	orrs	r3, r1
     42e:	61d3      	str	r3, [r2, #28]
}

static inline void hri_gclk_write_PCHCTRL_reg(const void *const hw, uint8_t index, hri_gclk_pchctrl_reg_t data)
{
	GCLK_CRITICAL_SECTION_ENTER();
	((Gclk *)hw)->PCHCTRL[index].reg = data;
     430:	2141      	movs	r1, #65	; 0x41
     432:	2382      	movs	r3, #130	; 0x82
     434:	005b      	lsls	r3, r3, #1
     436:	4a02      	ldr	r2, [pc, #8]	; (440 <ADC_0_CLOCK_init+0x1c>)
     438:	50d1      	str	r1, [r2, r3]

void ADC_0_CLOCK_init(void)
{
	hri_mclk_set_APBCMASK_ADC0_bit(MCLK);
	hri_gclk_write_PCHCTRL_reg(GCLK, ADC0_GCLK_ID, CONF_GCLK_ADC0_SRC | (1 << GCLK_PCHCTRL_CHEN_Pos));
}
     43a:	4770      	bx	lr
     43c:	40000800 	.word	0x40000800
     440:	40001c00 	.word	0x40001c00

00000444 <ADC_0_init>:

void ADC_0_init(void)
{
     444:	b510      	push	{r4, lr}
	ADC_0_CLOCK_init();
     446:	4b06      	ldr	r3, [pc, #24]	; (460 <ADC_0_init+0x1c>)
     448:	4798      	blx	r3
	ADC_0_PORT_init();
     44a:	4b06      	ldr	r3, [pc, #24]	; (464 <ADC_0_init+0x20>)
     44c:	4798      	blx	r3
	adc_sync_init(&ADC_0, ADC0, _adc_get_adc_sync());
     44e:	4b06      	ldr	r3, [pc, #24]	; (468 <ADC_0_init+0x24>)
     450:	4798      	blx	r3
     452:	0002      	movs	r2, r0
     454:	4905      	ldr	r1, [pc, #20]	; (46c <ADC_0_init+0x28>)
     456:	4806      	ldr	r0, [pc, #24]	; (470 <ADC_0_init+0x2c>)
     458:	4b06      	ldr	r3, [pc, #24]	; (474 <ADC_0_init+0x30>)
     45a:	4798      	blx	r3
}
     45c:	bd10      	pop	{r4, pc}
     45e:	46c0      	nop			; (mov r8, r8)
     460:	00000425 	.word	0x00000425
     464:	000001bd 	.word	0x000001bd
     468:	00000de5 	.word	0x00000de5
     46c:	42004400 	.word	0x42004400
     470:	200000fc 	.word	0x200000fc
     474:	00000761 	.word	0x00000761

00000478 <DEBUG_UART_PORT_init>:

void DEBUG_UART_PORT_init(void)
{
     478:	b530      	push	{r4, r5, lr}
	tmp = ((Port *)hw)->Group[submodule_index].PINCFG[index].reg;
     47a:	2382      	movs	r3, #130	; 0x82
     47c:	05db      	lsls	r3, r3, #23
     47e:	2250      	movs	r2, #80	; 0x50
     480:	5c99      	ldrb	r1, [r3, r2]
	tmp &= ~PORT_PINCFG_PMUXEN;
     482:	2501      	movs	r5, #1
     484:	43a9      	bics	r1, r5
	tmp |= value << PORT_PINCFG_PMUXEN_Pos;
     486:	2401      	movs	r4, #1
     488:	4321      	orrs	r1, r4
     48a:	b2c9      	uxtb	r1, r1
	((Port *)hw)->Group[submodule_index].PINCFG[index].reg = tmp;
     48c:	5499      	strb	r1, [r3, r2]
	tmp = ((Port *)hw)->Group[submodule_index].PMUX[index].reg;
     48e:	2038      	movs	r0, #56	; 0x38
     490:	5c19      	ldrb	r1, [r3, r0]
	tmp &= ~PORT_PMUX_PMUXE_Msk;
     492:	3a41      	subs	r2, #65	; 0x41
     494:	4391      	bics	r1, r2
	tmp |= PORT_PMUX_PMUXE(data);
     496:	3a0c      	subs	r2, #12
     498:	4311      	orrs	r1, r2
	((Port *)hw)->Group[submodule_index].PMUX[index].reg = tmp;
     49a:	5419      	strb	r1, [r3, r0]
	tmp = ((Port *)hw)->Group[submodule_index].PINCFG[index].reg;
     49c:	2151      	movs	r1, #81	; 0x51
     49e:	5c5a      	ldrb	r2, [r3, r1]
	tmp &= ~PORT_PINCFG_PMUXEN;
     4a0:	43aa      	bics	r2, r5
	tmp |= value << PORT_PINCFG_PMUXEN_Pos;
     4a2:	4322      	orrs	r2, r4
     4a4:	b2d2      	uxtb	r2, r2
	((Port *)hw)->Group[submodule_index].PINCFG[index].reg = tmp;
     4a6:	545a      	strb	r2, [r3, r1]
	tmp = ((Port *)hw)->Group[submodule_index].PMUX[index].reg;
     4a8:	5c1a      	ldrb	r2, [r3, r0]
	tmp &= ~PORT_PMUX_PMUXO_Msk;
     4aa:	3942      	subs	r1, #66	; 0x42
     4ac:	400a      	ands	r2, r1
	tmp |= PORT_PMUX_PMUXO(data);
     4ae:	3121      	adds	r1, #33	; 0x21
     4b0:	430a      	orrs	r2, r1
	((Port *)hw)->Group[submodule_index].PMUX[index].reg = tmp;
     4b2:	541a      	strb	r2, [r3, r0]

	gpio_set_pin_function(PA16, PINMUX_PA16D_SERCOM3_PAD0);

	gpio_set_pin_function(PA17, PINMUX_PA17D_SERCOM3_PAD1);
}
     4b4:	bd30      	pop	{r4, r5, pc}
	...

000004b8 <DEBUG_UART_CLOCK_init>:
     4b8:	4b06      	ldr	r3, [pc, #24]	; (4d4 <DEBUG_UART_CLOCK_init+0x1c>)
     4ba:	2140      	movs	r1, #64	; 0x40
     4bc:	22d8      	movs	r2, #216	; 0xd8
     4be:	5099      	str	r1, [r3, r2]
     4c0:	3102      	adds	r1, #2
     4c2:	3a10      	subs	r2, #16
     4c4:	5099      	str	r1, [r3, r2]
	((Mclk *)hw)->APBCMASK.reg |= MCLK_APBCMASK_SERCOM3;
     4c6:	4a04      	ldr	r2, [pc, #16]	; (4d8 <DEBUG_UART_CLOCK_init+0x20>)
     4c8:	69d3      	ldr	r3, [r2, #28]
     4ca:	3932      	subs	r1, #50	; 0x32
     4cc:	430b      	orrs	r3, r1
     4ce:	61d3      	str	r3, [r2, #28]
void DEBUG_UART_CLOCK_init(void)
{
	hri_gclk_write_PCHCTRL_reg(GCLK, SERCOM3_GCLK_ID_CORE, CONF_GCLK_SERCOM3_CORE_SRC | (1 << GCLK_PCHCTRL_CHEN_Pos));
	hri_gclk_write_PCHCTRL_reg(GCLK, SERCOM3_GCLK_ID_SLOW, CONF_GCLK_SERCOM3_SLOW_SRC | (1 << GCLK_PCHCTRL_CHEN_Pos));
	hri_mclk_set_APBCMASK_SERCOM3_bit(MCLK);
}
     4d0:	4770      	bx	lr
     4d2:	46c0      	nop			; (mov r8, r8)
     4d4:	40001c00 	.word	0x40001c00
     4d8:	40000800 	.word	0x40000800

000004dc <DEBUG_UART_init>:

void DEBUG_UART_init(void)
{
     4dc:	b510      	push	{r4, lr}
	DEBUG_UART_CLOCK_init();
     4de:	4b05      	ldr	r3, [pc, #20]	; (4f4 <DEBUG_UART_init+0x18>)
     4e0:	4798      	blx	r3
	usart_sync_init(&DEBUG_UART, SERCOM3, (void *)NULL);
     4e2:	2200      	movs	r2, #0
     4e4:	4904      	ldr	r1, [pc, #16]	; (4f8 <DEBUG_UART_init+0x1c>)
     4e6:	4805      	ldr	r0, [pc, #20]	; (4fc <DEBUG_UART_init+0x20>)
     4e8:	4b05      	ldr	r3, [pc, #20]	; (500 <DEBUG_UART_init+0x24>)
     4ea:	4798      	blx	r3
	DEBUG_UART_PORT_init();
     4ec:	4b05      	ldr	r3, [pc, #20]	; (504 <DEBUG_UART_init+0x28>)
     4ee:	4798      	blx	r3
}
     4f0:	bd10      	pop	{r4, pc}
     4f2:	46c0      	nop			; (mov r8, r8)
     4f4:	000004b9 	.word	0x000004b9
     4f8:	42001000 	.word	0x42001000
     4fc:	20000100 	.word	0x20000100
     500:	00000ad1 	.word	0x00000ad1
     504:	00000479 	.word	0x00000479

00000508 <CAN_0_PORT_init>:

void CAN_0_PORT_init(void)
{
     508:	b530      	push	{r4, r5, lr}
	tmp = ((Port *)hw)->Group[submodule_index].PINCFG[index].reg;
     50a:	2382      	movs	r3, #130	; 0x82
     50c:	05db      	lsls	r3, r3, #23
     50e:	22d7      	movs	r2, #215	; 0xd7
     510:	5c99      	ldrb	r1, [r3, r2]
	tmp &= ~PORT_PINCFG_PMUXEN;
     512:	2501      	movs	r5, #1
     514:	43a9      	bics	r1, r5
	tmp |= value << PORT_PINCFG_PMUXEN_Pos;
     516:	2401      	movs	r4, #1
     518:	4321      	orrs	r1, r4
     51a:	b2c9      	uxtb	r1, r1
	((Port *)hw)->Group[submodule_index].PINCFG[index].reg = tmp;
     51c:	5499      	strb	r1, [r3, r2]
	tmp = ((Port *)hw)->Group[submodule_index].PMUX[index].reg;
     51e:	20bb      	movs	r0, #187	; 0xbb
     520:	5c19      	ldrb	r1, [r3, r0]
	tmp &= ~PORT_PMUX_PMUXO_Msk;
     522:	3ac8      	subs	r2, #200	; 0xc8
     524:	4011      	ands	r1, r2
	tmp |= PORT_PMUX_PMUXO(data);
     526:	3251      	adds	r2, #81	; 0x51
     528:	4311      	orrs	r1, r2
	((Port *)hw)->Group[submodule_index].PMUX[index].reg = tmp;
     52a:	5419      	strb	r1, [r3, r0]
	tmp = ((Port *)hw)->Group[submodule_index].PINCFG[index].reg;
     52c:	21d6      	movs	r1, #214	; 0xd6
     52e:	5c5a      	ldrb	r2, [r3, r1]
	tmp &= ~PORT_PINCFG_PMUXEN;
     530:	43aa      	bics	r2, r5
	tmp |= value << PORT_PINCFG_PMUXEN_Pos;
     532:	4322      	orrs	r2, r4
     534:	b2d2      	uxtb	r2, r2
	((Port *)hw)->Group[submodule_index].PINCFG[index].reg = tmp;
     536:	545a      	strb	r2, [r3, r1]
	tmp = ((Port *)hw)->Group[submodule_index].PMUX[index].reg;
     538:	5c1a      	ldrb	r2, [r3, r0]
	tmp &= ~PORT_PMUX_PMUXE_Msk;
     53a:	39c7      	subs	r1, #199	; 0xc7
     53c:	438a      	bics	r2, r1
	tmp |= PORT_PMUX_PMUXE(data);
     53e:	3909      	subs	r1, #9
     540:	430a      	orrs	r2, r1
	((Port *)hw)->Group[submodule_index].PMUX[index].reg = tmp;
     542:	541a      	strb	r2, [r3, r0]

	gpio_set_pin_function(PB23, PINMUX_PB23G_CAN0_RX);

	gpio_set_pin_function(PB22, PINMUX_PB22G_CAN0_TX);
}
     544:	bd30      	pop	{r4, r5, pc}
	...

00000548 <CAN_0_init>:
 * \brief CAN initialization function
 *
 * Enables CAN peripheral, clocks and initializes CAN driver
 */
void CAN_0_init(void)
{
     548:	b510      	push	{r4, lr}
	((Mclk *)hw)->AHBMASK.reg |= MCLK_AHBMASK_CAN0;
     54a:	4a08      	ldr	r2, [pc, #32]	; (56c <CAN_0_init+0x24>)
     54c:	6911      	ldr	r1, [r2, #16]
     54e:	2380      	movs	r3, #128	; 0x80
     550:	005b      	lsls	r3, r3, #1
     552:	430b      	orrs	r3, r1
     554:	6113      	str	r3, [r2, #16]
     556:	2140      	movs	r1, #64	; 0x40
     558:	23e8      	movs	r3, #232	; 0xe8
     55a:	4a05      	ldr	r2, [pc, #20]	; (570 <CAN_0_init+0x28>)
     55c:	50d1      	str	r1, [r2, r3]
	hri_mclk_set_AHBMASK_CAN0_bit(MCLK);
	hri_gclk_write_PCHCTRL_reg(GCLK, CAN0_GCLK_ID, CONF_GCLK_CAN0_SRC | (1 << GCLK_PCHCTRL_CHEN_Pos));
	can_async_init(&CAN_0, CAN0);
     55e:	4905      	ldr	r1, [pc, #20]	; (574 <CAN_0_init+0x2c>)
     560:	4805      	ldr	r0, [pc, #20]	; (578 <CAN_0_init+0x30>)
     562:	4b06      	ldr	r3, [pc, #24]	; (57c <CAN_0_init+0x34>)
     564:	4798      	blx	r3
	CAN_0_PORT_init();
     566:	4b06      	ldr	r3, [pc, #24]	; (580 <CAN_0_init+0x38>)
     568:	4798      	blx	r3
}
     56a:	bd10      	pop	{r4, pc}
     56c:	40000800 	.word	0x40000800
     570:	40001c00 	.word	0x40001c00
     574:	42001c00 	.word	0x42001c00
     578:	200000d0 	.word	0x200000d0
     57c:	000008a5 	.word	0x000008a5
     580:	00000509 	.word	0x00000509

00000584 <TEMPERATURE_SENSOR_0_CLOCK_init>:
	((Mclk *)hw)->APBAMASK.reg |= MCLK_APBAMASK_TSENS;
     584:	4a05      	ldr	r2, [pc, #20]	; (59c <TEMPERATURE_SENSOR_0_CLOCK_init+0x18>)
     586:	6951      	ldr	r1, [r2, #20]
     588:	2380      	movs	r3, #128	; 0x80
     58a:	015b      	lsls	r3, r3, #5
     58c:	430b      	orrs	r3, r1
     58e:	6153      	str	r3, [r2, #20]
     590:	2141      	movs	r1, #65	; 0x41
     592:	2394      	movs	r3, #148	; 0x94
     594:	4a02      	ldr	r2, [pc, #8]	; (5a0 <TEMPERATURE_SENSOR_0_CLOCK_init+0x1c>)
     596:	50d1      	str	r1, [r2, r3]
void TEMPERATURE_SENSOR_0_CLOCK_init(void)
{
	hri_mclk_set_APBAMASK_TSENS_bit(MCLK);

	hri_gclk_write_PCHCTRL_reg(GCLK, TSENS_GCLK_ID, CONF_GCLK_TSENS_SRC | (1 << GCLK_PCHCTRL_CHEN_Pos));
}
     598:	4770      	bx	lr
     59a:	46c0      	nop			; (mov r8, r8)
     59c:	40000800 	.word	0x40000800
     5a0:	40001c00 	.word	0x40001c00

000005a4 <TEMPERATURE_SENSOR_0_init>:

void TEMPERATURE_SENSOR_0_init(void)
{
     5a4:	b510      	push	{r4, lr}
	TEMPERATURE_SENSOR_0_CLOCK_init();
     5a6:	4b03      	ldr	r3, [pc, #12]	; (5b4 <TEMPERATURE_SENSOR_0_init+0x10>)
     5a8:	4798      	blx	r3
	temp_sync_init(&TEMPERATURE_SENSOR_0, TSENS);
     5aa:	4903      	ldr	r1, [pc, #12]	; (5b8 <TEMPERATURE_SENSOR_0_init+0x14>)
     5ac:	4803      	ldr	r0, [pc, #12]	; (5bc <TEMPERATURE_SENSOR_0_init+0x18>)
     5ae:	4b04      	ldr	r3, [pc, #16]	; (5c0 <TEMPERATURE_SENSOR_0_init+0x1c>)
     5b0:	4798      	blx	r3
}
     5b2:	bd10      	pop	{r4, pc}
     5b4:	00000585 	.word	0x00000585
     5b8:	40003000 	.word	0x40003000
     5bc:	200000f8 	.word	0x200000f8
     5c0:	0000095d 	.word	0x0000095d

000005c4 <system_init>:

void system_init(void)
{
     5c4:	b5f8      	push	{r3, r4, r5, r6, r7, lr}
 * Currently the following initialization functions are supported:
 *  - System clock initialization
 */
static inline void init_mcu(void)
{
	_init_chip();
     5c6:	4b54      	ldr	r3, [pc, #336]	; (718 <system_init+0x154>)
     5c8:	4798      	blx	r3
	((Port *)hw)->Group[submodule_index].DIRCLR.reg = mask;
     5ca:	22c0      	movs	r2, #192	; 0xc0
     5cc:	05d2      	lsls	r2, r2, #23
     5ce:	2101      	movs	r1, #1
     5d0:	6051      	str	r1, [r2, #4]
	((Port *)hw)->Group[submodule_index].WRCONFIG.reg = data;
     5d2:	2382      	movs	r3, #130	; 0x82
     5d4:	05db      	lsls	r3, r3, #23
     5d6:	4851      	ldr	r0, [pc, #324]	; (71c <system_init+0x158>)
     5d8:	6298      	str	r0, [r3, #40]	; 0x28
     5da:	4f51      	ldr	r7, [pc, #324]	; (720 <system_init+0x15c>)
     5dc:	629f      	str	r7, [r3, #40]	; 0x28
	((Port *)hw)->Group[submodule_index].DIRCLR.reg = mask;
     5de:	6051      	str	r1, [r2, #4]
	((Port *)hw)->Group[submodule_index].PINCFG[index].reg |= PORT_PINCFG_PULLEN;
     5e0:	2040      	movs	r0, #64	; 0x40
     5e2:	5c1c      	ldrb	r4, [r3, r0]
     5e4:	2504      	movs	r5, #4
     5e6:	2604      	movs	r6, #4
     5e8:	4334      	orrs	r4, r6
     5ea:	b2e4      	uxtb	r4, r4
     5ec:	541c      	strb	r4, [r3, r0]
	((Port *)hw)->Group[submodule_index].OUTCLR.reg = mask;
     5ee:	6151      	str	r1, [r2, #20]
	tmp = ((Port *)hw)->Group[submodule_index].PINCFG[index].reg;
     5f0:	5c1c      	ldrb	r4, [r3, r0]
	tmp &= ~PORT_PINCFG_PMUXEN;
     5f2:	438c      	bics	r4, r1
	((Port *)hw)->Group[submodule_index].PINCFG[index].reg = tmp;
     5f4:	541c      	strb	r4, [r3, r0]
	((Port *)hw)->Group[submodule_index].DIRCLR.reg = mask;
     5f6:	2080      	movs	r0, #128	; 0x80
     5f8:	0140      	lsls	r0, r0, #5
     5fa:	4684      	mov	ip, r0
     5fc:	6050      	str	r0, [r2, #4]
	((Port *)hw)->Group[submodule_index].WRCONFIG.reg = data;
     5fe:	4849      	ldr	r0, [pc, #292]	; (724 <system_init+0x160>)
     600:	6298      	str	r0, [r3, #40]	; 0x28
     602:	629f      	str	r7, [r3, #40]	; 0x28
	((Port *)hw)->Group[submodule_index].DIRCLR.reg = mask;
     604:	4660      	mov	r0, ip
     606:	6050      	str	r0, [r2, #4]
	((Port *)hw)->Group[submodule_index].PINCFG[index].reg |= PORT_PINCFG_PULLEN;
     608:	204c      	movs	r0, #76	; 0x4c
     60a:	5c1c      	ldrb	r4, [r3, r0]
     60c:	4334      	orrs	r4, r6
     60e:	b2e4      	uxtb	r4, r4
     610:	541c      	strb	r4, [r3, r0]
	((Port *)hw)->Group[submodule_index].OUTSET.reg = mask;
     612:	4664      	mov	r4, ip
     614:	6194      	str	r4, [r2, #24]
	tmp = ((Port *)hw)->Group[submodule_index].PINCFG[index].reg;
     616:	5c1c      	ldrb	r4, [r3, r0]
	tmp &= ~PORT_PINCFG_PMUXEN;
     618:	438c      	bics	r4, r1
	((Port *)hw)->Group[submodule_index].PINCFG[index].reg = tmp;
     61a:	541c      	strb	r4, [r3, r0]
	((Port *)hw)->Group[submodule_index].DIRCLR.reg = mask;
     61c:	2080      	movs	r0, #128	; 0x80
     61e:	0180      	lsls	r0, r0, #6
     620:	4684      	mov	ip, r0
     622:	6050      	str	r0, [r2, #4]
	((Port *)hw)->Group[submodule_index].WRCONFIG.reg = data;
     624:	4840      	ldr	r0, [pc, #256]	; (728 <system_init+0x164>)
     626:	6298      	str	r0, [r3, #40]	; 0x28
     628:	629f      	str	r7, [r3, #40]	; 0x28
	((Port *)hw)->Group[submodule_index].DIRCLR.reg = mask;
     62a:	4660      	mov	r0, ip
     62c:	6050      	str	r0, [r2, #4]
	((Port *)hw)->Group[submodule_index].PINCFG[index].reg |= PORT_PINCFG_PULLEN;
     62e:	244d      	movs	r4, #77	; 0x4d
     630:	5d18      	ldrb	r0, [r3, r4]
     632:	4330      	orrs	r0, r6
     634:	b2c0      	uxtb	r0, r0
     636:	5518      	strb	r0, [r3, r4]
	((Port *)hw)->Group[submodule_index].OUTSET.reg = mask;
     638:	4660      	mov	r0, ip
     63a:	6190      	str	r0, [r2, #24]
	tmp = ((Port *)hw)->Group[submodule_index].PINCFG[index].reg;
     63c:	5d18      	ldrb	r0, [r3, r4]
	tmp &= ~PORT_PINCFG_PMUXEN;
     63e:	4388      	bics	r0, r1
	((Port *)hw)->Group[submodule_index].PINCFG[index].reg = tmp;
     640:	5518      	strb	r0, [r3, r4]
	((Port *)hw)->Group[submodule_index].DIRCLR.reg = mask;
     642:	2080      	movs	r0, #128	; 0x80
     644:	02c0      	lsls	r0, r0, #11
     646:	6050      	str	r0, [r2, #4]
	((Port *)hw)->Group[submodule_index].WRCONFIG.reg = data;
     648:	4c38      	ldr	r4, [pc, #224]	; (72c <system_init+0x168>)
     64a:	629c      	str	r4, [r3, #40]	; 0x28
     64c:	4838      	ldr	r0, [pc, #224]	; (730 <system_init+0x16c>)
     64e:	6298      	str	r0, [r3, #40]	; 0x28
	((Port *)hw)->Group[submodule_index].PINCFG[index].reg &= ~PORT_PINCFG_PULLEN;
     650:	2052      	movs	r0, #82	; 0x52
     652:	5c1e      	ldrb	r6, [r3, r0]
     654:	43ae      	bics	r6, r5
     656:	541e      	strb	r6, [r3, r0]
	tmp = ((Port *)hw)->Group[submodule_index].PINCFG[index].reg;
     658:	5c1e      	ldrb	r6, [r3, r0]
	tmp &= ~PORT_PINCFG_PMUXEN;
     65a:	438e      	bics	r6, r1
	((Port *)hw)->Group[submodule_index].PINCFG[index].reg = tmp;
     65c:	541e      	strb	r6, [r3, r0]
	((Port *)hw)->Group[submodule_index].DIRCLR.reg = mask;
     65e:	2080      	movs	r0, #128	; 0x80
     660:	0300      	lsls	r0, r0, #12
     662:	6050      	str	r0, [r2, #4]
	((Port *)hw)->Group[submodule_index].WRCONFIG.reg = data;
     664:	629c      	str	r4, [r3, #40]	; 0x28
     666:	4833      	ldr	r0, [pc, #204]	; (734 <system_init+0x170>)
     668:	6298      	str	r0, [r3, #40]	; 0x28
	((Port *)hw)->Group[submodule_index].PINCFG[index].reg &= ~PORT_PINCFG_PULLEN;
     66a:	2053      	movs	r0, #83	; 0x53
     66c:	5c1e      	ldrb	r6, [r3, r0]
     66e:	43ae      	bics	r6, r5
     670:	541e      	strb	r6, [r3, r0]
	tmp = ((Port *)hw)->Group[submodule_index].PINCFG[index].reg;
     672:	5c1e      	ldrb	r6, [r3, r0]
	tmp &= ~PORT_PINCFG_PMUXEN;
     674:	438e      	bics	r6, r1
	((Port *)hw)->Group[submodule_index].PINCFG[index].reg = tmp;
     676:	541e      	strb	r6, [r3, r0]
	((Port *)hw)->Group[submodule_index].DIRCLR.reg = mask;
     678:	2080      	movs	r0, #128	; 0x80
     67a:	0340      	lsls	r0, r0, #13
     67c:	6050      	str	r0, [r2, #4]
	((Port *)hw)->Group[submodule_index].WRCONFIG.reg = data;
     67e:	629c      	str	r4, [r3, #40]	; 0x28
     680:	482d      	ldr	r0, [pc, #180]	; (738 <system_init+0x174>)
     682:	6298      	str	r0, [r3, #40]	; 0x28
	((Port *)hw)->Group[submodule_index].PINCFG[index].reg &= ~PORT_PINCFG_PULLEN;
     684:	2054      	movs	r0, #84	; 0x54
     686:	5c1c      	ldrb	r4, [r3, r0]
     688:	43ac      	bics	r4, r5
     68a:	541c      	strb	r4, [r3, r0]
	tmp = ((Port *)hw)->Group[submodule_index].PINCFG[index].reg;
     68c:	5c1c      	ldrb	r4, [r3, r0]
	tmp &= ~PORT_PINCFG_PMUXEN;
     68e:	438c      	bics	r4, r1
	((Port *)hw)->Group[submodule_index].PINCFG[index].reg = tmp;
     690:	541c      	strb	r4, [r3, r0]
	((Port *)hw)->Group[submodule_index].OUTCLR.reg = mask;
     692:	2080      	movs	r0, #128	; 0x80
     694:	0380      	lsls	r0, r0, #14
     696:	6150      	str	r0, [r2, #20]
	((Port *)hw)->Group[submodule_index].DIRSET.reg = mask;
     698:	6090      	str	r0, [r2, #8]
	((Port *)hw)->Group[submodule_index].WRCONFIG.reg = data;
     69a:	2080      	movs	r0, #128	; 0x80
     69c:	05c0      	lsls	r0, r0, #23
     69e:	6298      	str	r0, [r3, #40]	; 0x28
     6a0:	4c26      	ldr	r4, [pc, #152]	; (73c <system_init+0x178>)
     6a2:	629c      	str	r4, [r3, #40]	; 0x28
	tmp = ((Port *)hw)->Group[submodule_index].PINCFG[index].reg;
     6a4:	3551      	adds	r5, #81	; 0x51
     6a6:	5d5c      	ldrb	r4, [r3, r5]
	tmp &= ~PORT_PINCFG_PMUXEN;
     6a8:	438c      	bics	r4, r1
	((Port *)hw)->Group[submodule_index].PINCFG[index].reg = tmp;
     6aa:	555c      	strb	r4, [r3, r5]
	((Port *)hw)->Group[submodule_index].OUTSET.reg = mask;
     6ac:	2480      	movs	r4, #128	; 0x80
     6ae:	03e4      	lsls	r4, r4, #15
     6b0:	6194      	str	r4, [r2, #24]
	((Port *)hw)->Group[submodule_index].DIRSET.reg = mask;
     6b2:	6094      	str	r4, [r2, #8]
	((Port *)hw)->Group[submodule_index].WRCONFIG.reg = data;
     6b4:	6298      	str	r0, [r3, #40]	; 0x28
     6b6:	4c22      	ldr	r4, [pc, #136]	; (740 <system_init+0x17c>)
     6b8:	629c      	str	r4, [r3, #40]	; 0x28
	tmp = ((Port *)hw)->Group[submodule_index].PINCFG[index].reg;
     6ba:	3501      	adds	r5, #1
     6bc:	5d5c      	ldrb	r4, [r3, r5]
	tmp &= ~PORT_PINCFG_PMUXEN;
     6be:	438c      	bics	r4, r1
	((Port *)hw)->Group[submodule_index].PINCFG[index].reg = tmp;
     6c0:	555c      	strb	r4, [r3, r5]
	((Port *)hw)->Group[submodule_index].OUTCLR.reg = mask;
     6c2:	2480      	movs	r4, #128	; 0x80
     6c4:	0424      	lsls	r4, r4, #16
     6c6:	6154      	str	r4, [r2, #20]
	((Port *)hw)->Group[submodule_index].DIRSET.reg = mask;
     6c8:	6094      	str	r4, [r2, #8]
	((Port *)hw)->Group[submodule_index].WRCONFIG.reg = data;
     6ca:	6298      	str	r0, [r3, #40]	; 0x28
     6cc:	4c1d      	ldr	r4, [pc, #116]	; (744 <system_init+0x180>)
     6ce:	629c      	str	r4, [r3, #40]	; 0x28
	tmp = ((Port *)hw)->Group[submodule_index].PINCFG[index].reg;
     6d0:	3501      	adds	r5, #1
     6d2:	5d5c      	ldrb	r4, [r3, r5]
	tmp &= ~PORT_PINCFG_PMUXEN;
     6d4:	438c      	bics	r4, r1
	((Port *)hw)->Group[submodule_index].PINCFG[index].reg = tmp;
     6d6:	555c      	strb	r4, [r3, r5]
	((Port *)hw)->Group[submodule_index].OUTSET.reg = mask;
     6d8:	2480      	movs	r4, #128	; 0x80
     6da:	0524      	lsls	r4, r4, #20
     6dc:	6194      	str	r4, [r2, #24]
	((Port *)hw)->Group[submodule_index].DIRSET.reg = mask;
     6de:	6094      	str	r4, [r2, #8]
	((Port *)hw)->Group[submodule_index].WRCONFIG.reg = data;
     6e0:	6298      	str	r0, [r3, #40]	; 0x28
     6e2:	4c19      	ldr	r4, [pc, #100]	; (748 <system_init+0x184>)
     6e4:	629c      	str	r4, [r3, #40]	; 0x28
	tmp = ((Port *)hw)->Group[submodule_index].PINCFG[index].reg;
     6e6:	3504      	adds	r5, #4
     6e8:	5d5c      	ldrb	r4, [r3, r5]
	tmp &= ~PORT_PINCFG_PMUXEN;
     6ea:	438c      	bics	r4, r1
	((Port *)hw)->Group[submodule_index].PINCFG[index].reg = tmp;
     6ec:	555c      	strb	r4, [r3, r5]
	((Port *)hw)->Group[submodule_index].OUTSET.reg = mask;
     6ee:	2480      	movs	r4, #128	; 0x80
     6f0:	0564      	lsls	r4, r4, #21
     6f2:	6194      	str	r4, [r2, #24]
	((Port *)hw)->Group[submodule_index].DIRSET.reg = mask;
     6f4:	6094      	str	r4, [r2, #8]
	((Port *)hw)->Group[submodule_index].WRCONFIG.reg = data;
     6f6:	6298      	str	r0, [r3, #40]	; 0x28
     6f8:	4a14      	ldr	r2, [pc, #80]	; (74c <system_init+0x188>)
     6fa:	629a      	str	r2, [r3, #40]	; 0x28
	tmp = ((Port *)hw)->Group[submodule_index].PINCFG[index].reg;
     6fc:	205c      	movs	r0, #92	; 0x5c
     6fe:	5c1a      	ldrb	r2, [r3, r0]
	tmp &= ~PORT_PINCFG_PMUXEN;
     700:	438a      	bics	r2, r1
	((Port *)hw)->Group[submodule_index].PINCFG[index].reg = tmp;
     702:	541a      	strb	r2, [r3, r0]
	// Set pin direction to output
	gpio_set_pin_direction(CAN0_STBY, GPIO_DIRECTION_OUT);

	gpio_set_pin_function(CAN0_STBY, GPIO_PIN_FUNCTION_OFF);

	ADC_0_init();
     704:	4b12      	ldr	r3, [pc, #72]	; (750 <system_init+0x18c>)
     706:	4798      	blx	r3

	DEBUG_UART_init();
     708:	4b12      	ldr	r3, [pc, #72]	; (754 <system_init+0x190>)
     70a:	4798      	blx	r3
	CAN_0_init();
     70c:	4b12      	ldr	r3, [pc, #72]	; (758 <system_init+0x194>)
     70e:	4798      	blx	r3

	TEMPERATURE_SENSOR_0_init();
     710:	4b12      	ldr	r3, [pc, #72]	; (75c <system_init+0x198>)
     712:	4798      	blx	r3
}
     714:	bdf8      	pop	{r3, r4, r5, r6, r7, pc}
     716:	46c0      	nop			; (mov r8, r8)
     718:	00000f71 	.word	0x00000f71
     71c:	40020001 	.word	0x40020001
     720:	c0020000 	.word	0xc0020000
     724:	40021000 	.word	0x40021000
     728:	40022000 	.word	0x40022000
     72c:	40020000 	.word	0x40020000
     730:	c0020004 	.word	0xc0020004
     734:	c0020008 	.word	0xc0020008
     738:	c0020010 	.word	0xc0020010
     73c:	c0000020 	.word	0xc0000020
     740:	c0000040 	.word	0xc0000040
     744:	c0000080 	.word	0xc0000080
     748:	c0000800 	.word	0xc0000800
     74c:	c0001000 	.word	0xc0001000
     750:	00000445 	.word	0x00000445
     754:	000004dd 	.word	0x000004dd
     758:	00000549 	.word	0x00000549
     75c:	000005a5 	.word	0x000005a5

00000760 <adc_sync_init>:

/**
 * \brief Initialize ADC
 */
int32_t adc_sync_init(struct adc_sync_descriptor *const descr, void *const hw, void *const func)
{
     760:	b570      	push	{r4, r5, r6, lr}
     762:	0004      	movs	r4, r0
     764:	000d      	movs	r5, r1
	ASSERT(descr && hw);
     766:	2800      	cmp	r0, #0
     768:	d00c      	beq.n	784 <adc_sync_init+0x24>
     76a:	0008      	movs	r0, r1
     76c:	1e43      	subs	r3, r0, #1
     76e:	4198      	sbcs	r0, r3
     770:	b2c0      	uxtb	r0, r0
     772:	2239      	movs	r2, #57	; 0x39
     774:	4904      	ldr	r1, [pc, #16]	; (788 <adc_sync_init+0x28>)
     776:	4b05      	ldr	r3, [pc, #20]	; (78c <adc_sync_init+0x2c>)
     778:	4798      	blx	r3

	return _adc_sync_init(&descr->device, hw);
     77a:	0029      	movs	r1, r5
     77c:	0020      	movs	r0, r4
     77e:	4b04      	ldr	r3, [pc, #16]	; (790 <adc_sync_init+0x30>)
     780:	4798      	blx	r3
}
     782:	bd70      	pop	{r4, r5, r6, pc}
     784:	2000      	movs	r0, #0
     786:	e7f4      	b.n	772 <adc_sync_init+0x12>
     788:	00003e14 	.word	0x00003e14
     78c:	00000b49 	.word	0x00000b49
     790:	00000d29 	.word	0x00000d29

00000794 <adc_sync_enable_channel>:

/**
 * \brief Enable ADC
 */
int32_t adc_sync_enable_channel(struct adc_sync_descriptor *const descr, const uint8_t channel)
{
     794:	b570      	push	{r4, r5, r6, lr}
     796:	0004      	movs	r4, r0
     798:	000d      	movs	r5, r1
	ASSERT(descr);
     79a:	1e43      	subs	r3, r0, #1
     79c:	4198      	sbcs	r0, r3
     79e:	b2c0      	uxtb	r0, r0
     7a0:	224e      	movs	r2, #78	; 0x4e
     7a2:	4904      	ldr	r1, [pc, #16]	; (7b4 <adc_sync_enable_channel+0x20>)
     7a4:	4b04      	ldr	r3, [pc, #16]	; (7b8 <adc_sync_enable_channel+0x24>)
     7a6:	4798      	blx	r3
	_adc_sync_enable_channel(&descr->device, channel);
     7a8:	0029      	movs	r1, r5
     7aa:	0020      	movs	r0, r4
     7ac:	4b03      	ldr	r3, [pc, #12]	; (7bc <adc_sync_enable_channel+0x28>)
     7ae:	4798      	blx	r3

	return ERR_NONE;
}
     7b0:	2000      	movs	r0, #0
     7b2:	bd70      	pop	{r4, r5, r6, pc}
     7b4:	00003e14 	.word	0x00003e14
     7b8:	00000b49 	.word	0x00000b49
     7bc:	00000d61 	.word	0x00000d61

000007c0 <adc_sync_read_channel>:
/*
 * \brief Read data from ADC
 */
int32_t adc_sync_read_channel(struct adc_sync_descriptor *const descr, const uint8_t channel, uint8_t *const buffer,
                              const uint16_t length)
{
     7c0:	b5f0      	push	{r4, r5, r6, r7, lr}
     7c2:	46de      	mov	lr, fp
     7c4:	4657      	mov	r7, sl
     7c6:	464e      	mov	r6, r9
     7c8:	4645      	mov	r5, r8
     7ca:	b5e0      	push	{r5, r6, r7, lr}
     7cc:	b083      	sub	sp, #12
     7ce:	0006      	movs	r6, r0
     7d0:	000d      	movs	r5, r1
     7d2:	4691      	mov	r9, r2
     7d4:	9301      	str	r3, [sp, #4]
	uint8_t  data_size;
	uint16_t offset = 0;

	ASSERT(descr && buffer && length);
     7d6:	2800      	cmp	r0, #0
     7d8:	d01e      	beq.n	818 <adc_sync_read_channel+0x58>
     7da:	2a00      	cmp	r2, #0
     7dc:	d01e      	beq.n	81c <adc_sync_read_channel+0x5c>
     7de:	0018      	movs	r0, r3
     7e0:	1e43      	subs	r3, r0, #1
     7e2:	4198      	sbcs	r0, r3
     7e4:	2267      	movs	r2, #103	; 0x67
     7e6:	491f      	ldr	r1, [pc, #124]	; (864 <adc_sync_read_channel+0xa4>)
     7e8:	4f1f      	ldr	r7, [pc, #124]	; (868 <adc_sync_read_channel+0xa8>)
     7ea:	47b8      	blx	r7
	data_size = _adc_sync_get_data_size(&descr->device);
     7ec:	0034      	movs	r4, r6
     7ee:	0030      	movs	r0, r6
     7f0:	4b1e      	ldr	r3, [pc, #120]	; (86c <adc_sync_read_channel+0xac>)
     7f2:	4798      	blx	r3
     7f4:	0001      	movs	r1, r0
     7f6:	4680      	mov	r8, r0
	ASSERT(!(length % data_size));
     7f8:	9801      	ldr	r0, [sp, #4]
     7fa:	4b1d      	ldr	r3, [pc, #116]	; (870 <adc_sync_read_channel+0xb0>)
     7fc:	4798      	blx	r3
     7fe:	4248      	negs	r0, r1
     800:	4148      	adcs	r0, r1
     802:	b2c0      	uxtb	r0, r0
     804:	2269      	movs	r2, #105	; 0x69
     806:	4917      	ldr	r1, [pc, #92]	; (864 <adc_sync_read_channel+0xa4>)
     808:	47b8      	blx	r7
	uint16_t offset = 0;
     80a:	2700      	movs	r7, #0

	do {
		uint16_t result;
		_adc_sync_convert(&descr->device);
     80c:	4b19      	ldr	r3, [pc, #100]	; (874 <adc_sync_read_channel+0xb4>)
     80e:	469b      	mov	fp, r3

		while (!_adc_sync_is_channel_conversion_done(&descr->device, channel))
     810:	4e19      	ldr	r6, [pc, #100]	; (878 <adc_sync_read_channel+0xb8>)
			;

		result         = _adc_sync_read_channel_data(&descr->device, channel);
     812:	4b1a      	ldr	r3, [pc, #104]	; (87c <adc_sync_read_channel+0xbc>)
     814:	469a      	mov	sl, r3
     816:	e008      	b.n	82a <adc_sync_read_channel+0x6a>
	ASSERT(descr && buffer && length);
     818:	2000      	movs	r0, #0
     81a:	e7e3      	b.n	7e4 <adc_sync_read_channel+0x24>
     81c:	2000      	movs	r0, #0
     81e:	e7e1      	b.n	7e4 <adc_sync_read_channel+0x24>
     820:	4447      	add	r7, r8
     822:	b2bf      	uxth	r7, r7
		buffer[offset] = result;
		if (1 < data_size) {
			buffer[offset + 1] = result >> 8;
		}
		offset += data_size;
	} while (offset < length);
     824:	9b01      	ldr	r3, [sp, #4]
     826:	42bb      	cmp	r3, r7
     828:	d913      	bls.n	852 <adc_sync_read_channel+0x92>
		_adc_sync_convert(&descr->device);
     82a:	0020      	movs	r0, r4
     82c:	47d8      	blx	fp
		while (!_adc_sync_is_channel_conversion_done(&descr->device, channel))
     82e:	0029      	movs	r1, r5
     830:	0020      	movs	r0, r4
     832:	47b0      	blx	r6
     834:	2800      	cmp	r0, #0
     836:	d0fa      	beq.n	82e <adc_sync_read_channel+0x6e>
		result         = _adc_sync_read_channel_data(&descr->device, channel);
     838:	0029      	movs	r1, r5
     83a:	0020      	movs	r0, r4
     83c:	47d0      	blx	sl
		buffer[offset] = result;
     83e:	464b      	mov	r3, r9
     840:	55d8      	strb	r0, [r3, r7]
		if (1 < data_size) {
     842:	4643      	mov	r3, r8
     844:	2b01      	cmp	r3, #1
     846:	d9eb      	bls.n	820 <adc_sync_read_channel+0x60>
			buffer[offset + 1] = result >> 8;
     848:	464b      	mov	r3, r9
     84a:	19db      	adds	r3, r3, r7
     84c:	0a00      	lsrs	r0, r0, #8
     84e:	7058      	strb	r0, [r3, #1]
     850:	e7e6      	b.n	820 <adc_sync_read_channel+0x60>

	return offset;
}
     852:	0038      	movs	r0, r7
     854:	b003      	add	sp, #12
     856:	bc3c      	pop	{r2, r3, r4, r5}
     858:	4690      	mov	r8, r2
     85a:	4699      	mov	r9, r3
     85c:	46a2      	mov	sl, r4
     85e:	46ab      	mov	fp, r5
     860:	bdf0      	pop	{r4, r5, r6, r7, pc}
     862:	46c0      	nop			; (mov r8, r8)
     864:	00003e14 	.word	0x00003e14
     868:	00000b49 	.word	0x00000b49
     86c:	00000d75 	.word	0x00000d75
     870:	00000ff9 	.word	0x00000ff9
     874:	00000d91 	.word	0x00000d91
     878:	00000d87 	.word	0x00000d87
     87c:	00000da3 	.word	0x00000da3

00000880 <can_tx_done>:

/**
 * \internal Callback of CAN Message Write finished
 */
static void can_tx_done(struct _can_async_device *dev)
{
     880:	b510      	push	{r4, lr}
	struct can_async_descriptor *const descr = CONTAINER_OF(dev, struct can_async_descriptor, dev);

	if (descr->cb.tx_done) {
     882:	69c3      	ldr	r3, [r0, #28]
     884:	2b00      	cmp	r3, #0
     886:	d000      	beq.n	88a <can_tx_done+0xa>
		descr->cb.tx_done(descr);
     888:	4798      	blx	r3
	}
}
     88a:	bd10      	pop	{r4, pc}

0000088c <can_rx_done>:

/**
 * \internal Callback of CAN Message Read finished
 */
static void can_rx_done(struct _can_async_device *dev)
{
     88c:	b510      	push	{r4, lr}
	struct can_async_descriptor *const descr = CONTAINER_OF(dev, struct can_async_descriptor, dev);

	if (descr->cb.rx_done) {
     88e:	6a03      	ldr	r3, [r0, #32]
     890:	2b00      	cmp	r3, #0
     892:	d000      	beq.n	896 <can_rx_done+0xa>
		descr->cb.rx_done(descr);
     894:	4798      	blx	r3
	}
}
     896:	bd10      	pop	{r4, pc}

00000898 <can_irq_handler>:

/**
 * \internal Callback of CAN Interrupt
 */
static void can_irq_handler(struct _can_async_device *dev, enum can_async_interrupt_type type)
{
     898:	b510      	push	{r4, lr}
	struct can_async_descriptor *const descr = CONTAINER_OF(dev, struct can_async_descriptor, dev);

	if (descr->cb.irq_handler) {
     89a:	6a43      	ldr	r3, [r0, #36]	; 0x24
     89c:	2b00      	cmp	r3, #0
     89e:	d000      	beq.n	8a2 <can_irq_handler+0xa>
		descr->cb.irq_handler(descr, type);
     8a0:	4798      	blx	r3
	}
}
     8a2:	bd10      	pop	{r4, pc}

000008a4 <can_async_init>:
{
     8a4:	b570      	push	{r4, r5, r6, lr}
     8a6:	0005      	movs	r5, r0
     8a8:	000c      	movs	r4, r1
	ASSERT(descr && hw);
     8aa:	2800      	cmp	r0, #0
     8ac:	d014      	beq.n	8d8 <can_async_init+0x34>
     8ae:	0008      	movs	r0, r1
     8b0:	1e43      	subs	r3, r0, #1
     8b2:	4198      	sbcs	r0, r3
     8b4:	b2c0      	uxtb	r0, r0
     8b6:	2241      	movs	r2, #65	; 0x41
     8b8:	4908      	ldr	r1, [pc, #32]	; (8dc <can_async_init+0x38>)
     8ba:	4b09      	ldr	r3, [pc, #36]	; (8e0 <can_async_init+0x3c>)
     8bc:	4798      	blx	r3
	rc = _can_async_init(&descr->dev, hw);
     8be:	0021      	movs	r1, r4
     8c0:	0028      	movs	r0, r5
     8c2:	4b08      	ldr	r3, [pc, #32]	; (8e4 <can_async_init+0x40>)
     8c4:	4798      	blx	r3
	if (rc) {
     8c6:	2800      	cmp	r0, #0
     8c8:	d105      	bne.n	8d6 <can_async_init+0x32>
	descr->dev.cb.tx_done     = can_tx_done;
     8ca:	4b07      	ldr	r3, [pc, #28]	; (8e8 <can_async_init+0x44>)
     8cc:	606b      	str	r3, [r5, #4]
	descr->dev.cb.rx_done     = can_rx_done;
     8ce:	4b07      	ldr	r3, [pc, #28]	; (8ec <can_async_init+0x48>)
     8d0:	60ab      	str	r3, [r5, #8]
	descr->dev.cb.irq_handler = can_irq_handler;
     8d2:	4b07      	ldr	r3, [pc, #28]	; (8f0 <can_async_init+0x4c>)
     8d4:	60eb      	str	r3, [r5, #12]
}
     8d6:	bd70      	pop	{r4, r5, r6, pc}
     8d8:	2000      	movs	r0, #0
     8da:	e7ec      	b.n	8b6 <can_async_init+0x12>
     8dc:	00003e30 	.word	0x00003e30
     8e0:	00000b49 	.word	0x00000b49
     8e4:	00000de9 	.word	0x00000de9
     8e8:	00000881 	.word	0x00000881
     8ec:	0000088d 	.word	0x0000088d
     8f0:	00000899 	.word	0x00000899

000008f4 <io_write>:

/**
 * \brief I/O write interface
 */
int32_t io_write(struct io_descriptor *const io_descr, const uint8_t *const buf, const uint16_t length)
{
     8f4:	b570      	push	{r4, r5, r6, lr}
     8f6:	0006      	movs	r6, r0
     8f8:	000c      	movs	r4, r1
     8fa:	0015      	movs	r5, r2
	ASSERT(io_descr && buf);
     8fc:	2800      	cmp	r0, #0
     8fe:	d00d      	beq.n	91c <io_write+0x28>
     900:	0008      	movs	r0, r1
     902:	1e43      	subs	r3, r0, #1
     904:	4198      	sbcs	r0, r3
     906:	b2c0      	uxtb	r0, r0
     908:	2234      	movs	r2, #52	; 0x34
     90a:	4905      	ldr	r1, [pc, #20]	; (920 <io_write+0x2c>)
     90c:	4b05      	ldr	r3, [pc, #20]	; (924 <io_write+0x30>)
     90e:	4798      	blx	r3
	return io_descr->write(io_descr, buf, length);
     910:	6833      	ldr	r3, [r6, #0]
     912:	002a      	movs	r2, r5
     914:	0021      	movs	r1, r4
     916:	0030      	movs	r0, r6
     918:	4798      	blx	r3
}
     91a:	bd70      	pop	{r4, r5, r6, pc}
     91c:	2000      	movs	r0, #0
     91e:	e7f3      	b.n	908 <io_write+0x14>
     920:	00003e4c 	.word	0x00003e4c
     924:	00000b49 	.word	0x00000b49

00000928 <io_read>:

/**
 * \brief I/O read interface
 */
int32_t io_read(struct io_descriptor *const io_descr, uint8_t *const buf, const uint16_t length)
{
     928:	b570      	push	{r4, r5, r6, lr}
     92a:	0006      	movs	r6, r0
     92c:	000c      	movs	r4, r1
     92e:	0015      	movs	r5, r2
	ASSERT(io_descr && buf);
     930:	2800      	cmp	r0, #0
     932:	d00d      	beq.n	950 <io_read+0x28>
     934:	0008      	movs	r0, r1
     936:	1e43      	subs	r3, r0, #1
     938:	4198      	sbcs	r0, r3
     93a:	b2c0      	uxtb	r0, r0
     93c:	223d      	movs	r2, #61	; 0x3d
     93e:	4905      	ldr	r1, [pc, #20]	; (954 <io_read+0x2c>)
     940:	4b05      	ldr	r3, [pc, #20]	; (958 <io_read+0x30>)
     942:	4798      	blx	r3
	return io_descr->read(io_descr, buf, length);
     944:	6873      	ldr	r3, [r6, #4]
     946:	002a      	movs	r2, r5
     948:	0021      	movs	r1, r4
     94a:	0030      	movs	r0, r6
     94c:	4798      	blx	r3
}
     94e:	bd70      	pop	{r4, r5, r6, pc}
     950:	2000      	movs	r0, #0
     952:	e7f3      	b.n	93c <io_read+0x14>
     954:	00003e4c 	.word	0x00003e4c
     958:	00000b49 	.word	0x00000b49

0000095c <temp_sync_init>:

/**
 * \brief              Initialize Temperature Descriptor
 */
int32_t temp_sync_init(struct temp_sync_descriptor *const descr, void *const hw)
{
     95c:	b570      	push	{r4, r5, r6, lr}
     95e:	0004      	movs	r4, r0
     960:	000d      	movs	r5, r1
	ASSERT(descr && hw);
     962:	2800      	cmp	r0, #0
     964:	d00c      	beq.n	980 <temp_sync_init+0x24>
     966:	0008      	movs	r0, r1
     968:	1e43      	subs	r3, r0, #1
     96a:	4198      	sbcs	r0, r3
     96c:	b2c0      	uxtb	r0, r0
     96e:	222b      	movs	r2, #43	; 0x2b
     970:	4904      	ldr	r1, [pc, #16]	; (984 <temp_sync_init+0x28>)
     972:	4b05      	ldr	r3, [pc, #20]	; (988 <temp_sync_init+0x2c>)
     974:	4798      	blx	r3
	return _temp_sync_init(&descr->dev, hw);
     976:	0029      	movs	r1, r5
     978:	0020      	movs	r0, r4
     97a:	4b04      	ldr	r3, [pc, #16]	; (98c <temp_sync_init+0x30>)
     97c:	4798      	blx	r3
}
     97e:	bd70      	pop	{r4, r5, r6, pc}
     980:	2000      	movs	r0, #0
     982:	e7f4      	b.n	96e <temp_sync_init+0x12>
     984:	00003e60 	.word	0x00003e60
     988:	00000b49 	.word	0x00000b49
     98c:	00001211 	.word	0x00001211

00000990 <temp_sync_enable>:

/**
 * \brief              Enable AES
 */
int32_t temp_sync_enable(struct temp_sync_descriptor *const descr)
{
     990:	b510      	push	{r4, lr}
     992:	0004      	movs	r4, r0
	ASSERT(descr);
     994:	1e43      	subs	r3, r0, #1
     996:	4198      	sbcs	r0, r3
     998:	b2c0      	uxtb	r0, r0
     99a:	223d      	movs	r2, #61	; 0x3d
     99c:	4903      	ldr	r1, [pc, #12]	; (9ac <temp_sync_enable+0x1c>)
     99e:	4b04      	ldr	r3, [pc, #16]	; (9b0 <temp_sync_enable+0x20>)
     9a0:	4798      	blx	r3
	return _temp_sync_enable(&descr->dev);
     9a2:	0020      	movs	r0, r4
     9a4:	4b03      	ldr	r3, [pc, #12]	; (9b4 <temp_sync_enable+0x24>)
     9a6:	4798      	blx	r3
}
     9a8:	bd10      	pop	{r4, pc}
     9aa:	46c0      	nop			; (mov r8, r8)
     9ac:	00003e60 	.word	0x00003e60
     9b0:	00000b49 	.word	0x00000b49
     9b4:	000012c5 	.word	0x000012c5

000009b8 <temp_sync_read>:

/**
 * \brief              Read Temperature Value
 */
int32_t temp_sync_read(struct temp_sync_descriptor *const descr, int32_t *const temp)
{
     9b8:	b570      	push	{r4, r5, r6, lr}
     9ba:	0004      	movs	r4, r0
     9bc:	000d      	movs	r5, r1
	ASSERT(descr && temp);
     9be:	2800      	cmp	r0, #0
     9c0:	d00c      	beq.n	9dc <temp_sync_read+0x24>
     9c2:	0008      	movs	r0, r1
     9c4:	1e43      	subs	r3, r0, #1
     9c6:	4198      	sbcs	r0, r3
     9c8:	b2c0      	uxtb	r0, r0
     9ca:	224f      	movs	r2, #79	; 0x4f
     9cc:	4904      	ldr	r1, [pc, #16]	; (9e0 <temp_sync_read+0x28>)
     9ce:	4b05      	ldr	r3, [pc, #20]	; (9e4 <temp_sync_read+0x2c>)
     9d0:	4798      	blx	r3
	return _temp_sync_read(&descr->dev, temp);
     9d2:	0029      	movs	r1, r5
     9d4:	0020      	movs	r0, r4
     9d6:	4b04      	ldr	r3, [pc, #16]	; (9e8 <temp_sync_read+0x30>)
     9d8:	4798      	blx	r3
}
     9da:	bd70      	pop	{r4, r5, r6, pc}
     9dc:	2000      	movs	r0, #0
     9de:	e7f4      	b.n	9ca <temp_sync_read+0x12>
     9e0:	00003e60 	.word	0x00003e60
     9e4:	00000b49 	.word	0x00000b49
     9e8:	000012db 	.word	0x000012db

000009ec <usart_sync_write>:
 * \param[in] length The number of bytes to write
 *
 * \return The number of bytes written.
 */
static int32_t usart_sync_write(struct io_descriptor *const io_descr, const uint8_t *const buf, const uint16_t length)
{
     9ec:	b5f8      	push	{r3, r4, r5, r6, r7, lr}
     9ee:	46ce      	mov	lr, r9
     9f0:	4647      	mov	r7, r8
     9f2:	b580      	push	{r7, lr}
     9f4:	0004      	movs	r4, r0
     9f6:	000f      	movs	r7, r1
     9f8:	4690      	mov	r8, r2
	uint32_t                      offset = 0;
	struct usart_sync_descriptor *descr  = CONTAINER_OF(io_descr, struct usart_sync_descriptor, io);

	ASSERT(io_descr && buf && length);
     9fa:	2800      	cmp	r0, #0
     9fc:	d026      	beq.n	a4c <usart_sync_write+0x60>
     9fe:	2900      	cmp	r1, #0
     a00:	d026      	beq.n	a50 <usart_sync_write+0x64>
     a02:	0010      	movs	r0, r2
     a04:	1e43      	subs	r3, r0, #1
     a06:	4198      	sbcs	r0, r3
     a08:	22f1      	movs	r2, #241	; 0xf1
     a0a:	4912      	ldr	r1, [pc, #72]	; (a54 <usart_sync_write+0x68>)
     a0c:	4b12      	ldr	r3, [pc, #72]	; (a58 <usart_sync_write+0x6c>)
     a0e:	4798      	blx	r3
	while (!_usart_sync_is_ready_to_send(&descr->device))
     a10:	3408      	adds	r4, #8
     a12:	4d12      	ldr	r5, [pc, #72]	; (a5c <usart_sync_write+0x70>)
     a14:	0020      	movs	r0, r4
     a16:	47a8      	blx	r5
     a18:	2800      	cmp	r0, #0
     a1a:	d0fb      	beq.n	a14 <usart_sync_write+0x28>
     a1c:	2600      	movs	r6, #0
		;
	do {
		_usart_sync_write_byte(&descr->device, buf[offset]);
     a1e:	4b10      	ldr	r3, [pc, #64]	; (a60 <usart_sync_write+0x74>)
     a20:	4699      	mov	r9, r3
		while (!_usart_sync_is_ready_to_send(&descr->device))
     a22:	4d0e      	ldr	r5, [pc, #56]	; (a5c <usart_sync_write+0x70>)
		_usart_sync_write_byte(&descr->device, buf[offset]);
     a24:	5db9      	ldrb	r1, [r7, r6]
     a26:	0020      	movs	r0, r4
     a28:	47c8      	blx	r9
		while (!_usart_sync_is_ready_to_send(&descr->device))
     a2a:	0020      	movs	r0, r4
     a2c:	47a8      	blx	r5
     a2e:	2800      	cmp	r0, #0
     a30:	d0fb      	beq.n	a2a <usart_sync_write+0x3e>
			;
	} while (++offset < length);
     a32:	3601      	adds	r6, #1
     a34:	4546      	cmp	r6, r8
     a36:	d3f5      	bcc.n	a24 <usart_sync_write+0x38>
	while (!_usart_sync_is_transmit_done(&descr->device))
     a38:	4d0a      	ldr	r5, [pc, #40]	; (a64 <usart_sync_write+0x78>)
     a3a:	0020      	movs	r0, r4
     a3c:	47a8      	blx	r5
     a3e:	2800      	cmp	r0, #0
     a40:	d0fb      	beq.n	a3a <usart_sync_write+0x4e>
		;
	return (int32_t)offset;
}
     a42:	0030      	movs	r0, r6
     a44:	bc0c      	pop	{r2, r3}
     a46:	4690      	mov	r8, r2
     a48:	4699      	mov	r9, r3
     a4a:	bdf8      	pop	{r3, r4, r5, r6, r7, pc}
	ASSERT(io_descr && buf && length);
     a4c:	2000      	movs	r0, #0
     a4e:	e7db      	b.n	a08 <usart_sync_write+0x1c>
     a50:	2000      	movs	r0, #0
     a52:	e7d9      	b.n	a08 <usart_sync_write+0x1c>
     a54:	00003e7c 	.word	0x00003e7c
     a58:	00000b49 	.word	0x00000b49
     a5c:	000011f1 	.word	0x000011f1
     a60:	000011e1 	.word	0x000011e1
     a64:	000011fb 	.word	0x000011fb

00000a68 <usart_sync_read>:
 * \param[in] length The size of a buffer
 *
 * \return The number of bytes read.
 */
static int32_t usart_sync_read(struct io_descriptor *const io_descr, uint8_t *const buf, const uint16_t length)
{
     a68:	b5f8      	push	{r3, r4, r5, r6, r7, lr}
     a6a:	46ce      	mov	lr, r9
     a6c:	4647      	mov	r7, r8
     a6e:	b580      	push	{r7, lr}
     a70:	0004      	movs	r4, r0
     a72:	000f      	movs	r7, r1
     a74:	4690      	mov	r8, r2
	uint32_t                      offset = 0;
	struct usart_sync_descriptor *descr  = CONTAINER_OF(io_descr, struct usart_sync_descriptor, io);

	ASSERT(io_descr && buf && length);
     a76:	2800      	cmp	r0, #0
     a78:	d01d      	beq.n	ab6 <usart_sync_read+0x4e>
     a7a:	2900      	cmp	r1, #0
     a7c:	d01d      	beq.n	aba <usart_sync_read+0x52>
     a7e:	0010      	movs	r0, r2
     a80:	1e43      	subs	r3, r0, #1
     a82:	4198      	sbcs	r0, r3
     a84:	2286      	movs	r2, #134	; 0x86
     a86:	0052      	lsls	r2, r2, #1
     a88:	490d      	ldr	r1, [pc, #52]	; (ac0 <usart_sync_read+0x58>)
     a8a:	4b0e      	ldr	r3, [pc, #56]	; (ac4 <usart_sync_read+0x5c>)
     a8c:	4798      	blx	r3
	uint32_t                      offset = 0;
     a8e:	2600      	movs	r6, #0
	do {
		while (!_usart_sync_is_byte_received(&descr->device))
     a90:	3408      	adds	r4, #8
     a92:	4d0d      	ldr	r5, [pc, #52]	; (ac8 <usart_sync_read+0x60>)
			;
		buf[offset] = _usart_sync_read_byte(&descr->device);
     a94:	4b0d      	ldr	r3, [pc, #52]	; (acc <usart_sync_read+0x64>)
     a96:	4699      	mov	r9, r3
		while (!_usart_sync_is_byte_received(&descr->device))
     a98:	0020      	movs	r0, r4
     a9a:	47a8      	blx	r5
     a9c:	2800      	cmp	r0, #0
     a9e:	d0fb      	beq.n	a98 <usart_sync_read+0x30>
		buf[offset] = _usart_sync_read_byte(&descr->device);
     aa0:	0020      	movs	r0, r4
     aa2:	47c8      	blx	r9
     aa4:	55b8      	strb	r0, [r7, r6]
	} while (++offset < length);
     aa6:	3601      	adds	r6, #1
     aa8:	4546      	cmp	r6, r8
     aaa:	d3f5      	bcc.n	a98 <usart_sync_read+0x30>

	return (int32_t)offset;
}
     aac:	0030      	movs	r0, r6
     aae:	bc0c      	pop	{r2, r3}
     ab0:	4690      	mov	r8, r2
     ab2:	4699      	mov	r9, r3
     ab4:	bdf8      	pop	{r3, r4, r5, r6, r7, pc}
	ASSERT(io_descr && buf && length);
     ab6:	2000      	movs	r0, #0
     ab8:	e7e4      	b.n	a84 <usart_sync_read+0x1c>
     aba:	2000      	movs	r0, #0
     abc:	e7e2      	b.n	a84 <usart_sync_read+0x1c>
     abe:	46c0      	nop			; (mov r8, r8)
     ac0:	00003e7c 	.word	0x00003e7c
     ac4:	00000b49 	.word	0x00000b49
     ac8:	00001205 	.word	0x00001205
     acc:	000011e9 	.word	0x000011e9

00000ad0 <usart_sync_init>:
{
     ad0:	b570      	push	{r4, r5, r6, lr}
     ad2:	0005      	movs	r5, r0
     ad4:	000c      	movs	r4, r1
	ASSERT(descr && hw);
     ad6:	2800      	cmp	r0, #0
     ad8:	d013      	beq.n	b02 <usart_sync_init+0x32>
     ada:	0008      	movs	r0, r1
     adc:	1e43      	subs	r3, r0, #1
     ade:	4198      	sbcs	r0, r3
     ae0:	b2c0      	uxtb	r0, r0
     ae2:	2234      	movs	r2, #52	; 0x34
     ae4:	4908      	ldr	r1, [pc, #32]	; (b08 <usart_sync_init+0x38>)
     ae6:	4b09      	ldr	r3, [pc, #36]	; (b0c <usart_sync_init+0x3c>)
     ae8:	4798      	blx	r3
	init_status = _usart_sync_init(&descr->device, hw);
     aea:	0028      	movs	r0, r5
     aec:	3008      	adds	r0, #8
     aee:	0021      	movs	r1, r4
     af0:	4b07      	ldr	r3, [pc, #28]	; (b10 <usart_sync_init+0x40>)
     af2:	4798      	blx	r3
	if (init_status) {
     af4:	2800      	cmp	r0, #0
     af6:	d103      	bne.n	b00 <usart_sync_init+0x30>
	descr->io.read  = usart_sync_read;
     af8:	4b06      	ldr	r3, [pc, #24]	; (b14 <usart_sync_init+0x44>)
     afa:	606b      	str	r3, [r5, #4]
	descr->io.write = usart_sync_write;
     afc:	4b06      	ldr	r3, [pc, #24]	; (b18 <usart_sync_init+0x48>)
     afe:	602b      	str	r3, [r5, #0]
}
     b00:	bd70      	pop	{r4, r5, r6, pc}
     b02:	2000      	movs	r0, #0
     b04:	e7ed      	b.n	ae2 <usart_sync_init+0x12>
     b06:	46c0      	nop			; (mov r8, r8)
     b08:	00003e7c 	.word	0x00003e7c
     b0c:	00000b49 	.word	0x00000b49
     b10:	000011a1 	.word	0x000011a1
     b14:	00000a69 	.word	0x00000a69
     b18:	000009ed 	.word	0x000009ed

00000b1c <usart_sync_enable>:
{
     b1c:	b510      	push	{r4, lr}
     b1e:	0004      	movs	r4, r0
	ASSERT(descr);
     b20:	1e43      	subs	r3, r0, #1
     b22:	4198      	sbcs	r0, r3
     b24:	b2c0      	uxtb	r0, r0
     b26:	2253      	movs	r2, #83	; 0x53
     b28:	4904      	ldr	r1, [pc, #16]	; (b3c <usart_sync_enable+0x20>)
     b2a:	4b05      	ldr	r3, [pc, #20]	; (b40 <usart_sync_enable+0x24>)
     b2c:	4798      	blx	r3
	_usart_sync_enable(&descr->device);
     b2e:	0020      	movs	r0, r4
     b30:	3008      	adds	r0, #8
     b32:	4b04      	ldr	r3, [pc, #16]	; (b44 <usart_sync_enable+0x28>)
     b34:	4798      	blx	r3
}
     b36:	2000      	movs	r0, #0
     b38:	bd10      	pop	{r4, pc}
     b3a:	46c0      	nop			; (mov r8, r8)
     b3c:	00003e7c 	.word	0x00003e7c
     b40:	00000b49 	.word	0x00000b49
     b44:	000011cd 	.word	0x000011cd

00000b48 <assert>:
/**
 * \brief Assert function
 */
void assert(const bool condition, const char *const file, const int line)
{
	if (!(condition)) {
     b48:	2800      	cmp	r0, #0
     b4a:	d100      	bne.n	b4e <assert+0x6>
		__asm("BKPT #0");
     b4c:	be00      	bkpt	0x0000
	}
	(void)file;
	(void)line;
}
     b4e:	4770      	bx	lr

00000b50 <_sbrk>:

/**
 * \brief Replacement of C library of _sbrk
 */
extern caddr_t _sbrk(int incr)
{
     b50:	0003      	movs	r3, r0
	static unsigned char *heap = NULL;
	unsigned char *       prev_heap;

	if (heap == NULL) {
     b52:	4a06      	ldr	r2, [pc, #24]	; (b6c <_sbrk+0x1c>)
     b54:	6812      	ldr	r2, [r2, #0]
     b56:	2a00      	cmp	r2, #0
     b58:	d004      	beq.n	b64 <_sbrk+0x14>
		heap = (unsigned char *)&_end;
	}
	prev_heap = heap;
     b5a:	4a04      	ldr	r2, [pc, #16]	; (b6c <_sbrk+0x1c>)
     b5c:	6810      	ldr	r0, [r2, #0]

	heap += incr;
     b5e:	18c3      	adds	r3, r0, r3
     b60:	6013      	str	r3, [r2, #0]

	return (caddr_t)prev_heap;
}
     b62:	4770      	bx	lr
		heap = (unsigned char *)&_end;
     b64:	4902      	ldr	r1, [pc, #8]	; (b70 <_sbrk+0x20>)
     b66:	4a01      	ldr	r2, [pc, #4]	; (b6c <_sbrk+0x1c>)
     b68:	6011      	str	r1, [r2, #0]
     b6a:	e7f6      	b.n	b5a <_sbrk+0xa>
     b6c:	20000094 	.word	0x20000094
     b70:	200015b0 	.word	0x200015b0

00000b74 <_close>:
 */
extern int _close(int file)
{
	(void)file;
	return -1;
}
     b74:	2001      	movs	r0, #1
     b76:	4240      	negs	r0, r0
     b78:	4770      	bx	lr

00000b7a <_fstat>:
 * \brief Replacement of C library of _fstat
 */
extern int _fstat(int file, struct stat *st)
{
	(void)file;
	st->st_mode = S_IFCHR;
     b7a:	2380      	movs	r3, #128	; 0x80
     b7c:	019b      	lsls	r3, r3, #6
     b7e:	604b      	str	r3, [r1, #4]

	return 0;
}
     b80:	2000      	movs	r0, #0
     b82:	4770      	bx	lr

00000b84 <_isatty>:
 */
extern int _isatty(int file)
{
	(void)file;
	return 1;
}
     b84:	2001      	movs	r0, #1
     b86:	4770      	bx	lr

00000b88 <_lseek>:
 */
extern int _lseek(int file, int ptr, int dir)
{
	(void)file, (void)ptr, (void)dir;
	return 0;
}
     b88:	2000      	movs	r0, #0
     b8a:	4770      	bx	lr

00000b8c <_adc_init>:
 *
 * \param[in] hw The pointer to hardware instance
 * \param[in] i The number of hardware instance
 */
static int32_t _adc_init(void *const hw, const uint8_t i)
{
     b8c:	b510      	push	{r4, lr}
	uint16_t calib_reg = 0;
	if (hw == ADC0) {
     b8e:	4b57      	ldr	r3, [pc, #348]	; (cec <_adc_init+0x160>)
     b90:	4298      	cmp	r0, r3
     b92:	d100      	bne.n	b96 <_adc_init+0xa>
     b94:	e095      	b.n	cc2 <_adc_init+0x136>
		calib_reg = ADC_CALIB_BIASREFBUF((*(uint32_t *)ADC0_FUSES_BIASREFBUF_ADDR >> ADC0_FUSES_BIASREFBUF_Pos))
		            | ADC_CALIB_BIASCOMP((*(uint32_t *)ADC0_FUSES_BIASCOMP_ADDR >> ADC0_FUSES_BIASCOMP_Pos));
	} else if (hw == ADC1) {
     b96:	4b56      	ldr	r3, [pc, #344]	; (cf0 <_adc_init+0x164>)
	uint16_t calib_reg = 0;
     b98:	2400      	movs	r4, #0
	} else if (hw == ADC1) {
     b9a:	4298      	cmp	r0, r3
     b9c:	d100      	bne.n	ba0 <_adc_init+0x14>
     b9e:	e09a      	b.n	cd6 <_adc_init+0x14a>
	};
}

static inline bool hri_adc_is_syncing(const void *const hw, hri_adc_syncbusy_reg_t reg)
{
	return ((Adc *)hw)->SYNCBUSY.reg & reg;
     ba0:	8c03      	ldrh	r3, [r0, #32]
		calib_reg = ADC_CALIB_BIASREFBUF((*(uint32_t *)ADC1_FUSES_BIASREFBUF_ADDR >> ADC1_FUSES_BIASREFBUF_Pos))
		            | ADC_CALIB_BIASCOMP((*(uint32_t *)ADC1_FUSES_BIASCOMP_ADDR >> ADC1_FUSES_BIASCOMP_Pos));
	}

	if (!hri_adc_is_syncing(hw, ADC_SYNCBUSY_SWRST)) {
     ba2:	07db      	lsls	r3, r3, #31
     ba4:	d418      	bmi.n	bd8 <_adc_init+0x4c>
	while (((Adc *)hw)->SYNCBUSY.reg & reg) {
     ba6:	2203      	movs	r2, #3
     ba8:	8c03      	ldrh	r3, [r0, #32]
     baa:	4213      	tst	r3, r2
     bac:	d1fc      	bne.n	ba8 <_adc_init+0x1c>

static inline hri_adc_ctrla_reg_t hri_adc_get_CTRLA_reg(const void *const hw, hri_adc_ctrla_reg_t mask)
{
	uint8_t tmp;
	hri_adc_wait_for_sync(hw, ADC_SYNCBUSY_SWRST | ADC_SYNCBUSY_ENABLE);
	tmp = ((Adc *)hw)->CTRLA.reg;
     bae:	7803      	ldrb	r3, [r0, #0]
		if (hri_adc_get_CTRLA_reg(hw, ADC_CTRLA_ENABLE)) {
     bb0:	079b      	lsls	r3, r3, #30
     bb2:	d50b      	bpl.n	bcc <_adc_init+0x40>
	((Adc *)hw)->CTRLA.reg &= ~ADC_CTRLA_ENABLE;
     bb4:	7803      	ldrb	r3, [r0, #0]
     bb6:	2202      	movs	r2, #2
     bb8:	4393      	bics	r3, r2
     bba:	7003      	strb	r3, [r0, #0]
	while (((Adc *)hw)->SYNCBUSY.reg & reg) {
     bbc:	3201      	adds	r2, #1
     bbe:	8c03      	ldrh	r3, [r0, #32]
     bc0:	4213      	tst	r3, r2
     bc2:	d1fc      	bne.n	bbe <_adc_init+0x32>
     bc4:	2202      	movs	r2, #2
     bc6:	8c03      	ldrh	r3, [r0, #32]
     bc8:	4213      	tst	r3, r2
     bca:	d1fc      	bne.n	bc6 <_adc_init+0x3a>
}

static inline void hri_adc_write_CTRLA_reg(const void *const hw, hri_adc_ctrla_reg_t data)
{
	ADC_CRITICAL_SECTION_ENTER();
	((Adc *)hw)->CTRLA.reg = data;
     bcc:	2301      	movs	r3, #1
     bce:	7003      	strb	r3, [r0, #0]
	while (((Adc *)hw)->SYNCBUSY.reg & reg) {
     bd0:	2203      	movs	r2, #3
     bd2:	8c03      	ldrh	r3, [r0, #32]
     bd4:	4213      	tst	r3, r2
     bd6:	d1fc      	bne.n	bd2 <_adc_init+0x46>
     bd8:	2201      	movs	r2, #1
     bda:	8c03      	ldrh	r3, [r0, #32]
     bdc:	4213      	tst	r3, r2
     bde:	d1fc      	bne.n	bda <_adc_init+0x4e>
}

static inline void hri_adc_write_CALIB_reg(const void *const hw, hri_adc_calib_reg_t data)
{
	ADC_CRITICAL_SECTION_ENTER();
	((Adc *)hw)->CALIB.reg = data;
     be0:	8584      	strh	r4, [r0, #44]	; 0x2c
		hri_adc_write_CTRLA_reg(hw, ADC_CTRLA_SWRST);
	}
	hri_adc_wait_for_sync(hw, ADC_SYNCBUSY_SWRST);

	hri_adc_write_CALIB_reg(hw, calib_reg);
	hri_adc_write_CTRLB_reg(hw, _adcs[i].ctrl_b);
     be2:	00ca      	lsls	r2, r1, #3
     be4:	1a52      	subs	r2, r2, r1
     be6:	0092      	lsls	r2, r2, #2
     be8:	4b42      	ldr	r3, [pc, #264]	; (cf4 <_adc_init+0x168>)
     bea:	189b      	adds	r3, r3, r2
     bec:	789a      	ldrb	r2, [r3, #2]
	((Adc *)hw)->CTRLB.reg = data;
     bee:	7042      	strb	r2, [r0, #1]
	hri_adc_write_REFCTRL_reg(hw, _adcs[i].ref_ctrl);
     bf0:	78da      	ldrb	r2, [r3, #3]
	((Adc *)hw)->REFCTRL.reg = data;
     bf2:	7082      	strb	r2, [r0, #2]
	hri_adc_write_EVCTRL_reg(hw, _adcs[i].ev_ctrl);
     bf4:	791a      	ldrb	r2, [r3, #4]
	((Adc *)hw)->EVCTRL.reg = data;
     bf6:	70c2      	strb	r2, [r0, #3]
	hri_adc_write_INPUTCTRL_reg(hw, _adcs[i].input_ctrl);
     bf8:	88db      	ldrh	r3, [r3, #6]
	((Adc *)hw)->INPUTCTRL.reg = data;
     bfa:	8103      	strh	r3, [r0, #8]
	while (((Adc *)hw)->SYNCBUSY.reg & reg) {
     bfc:	8c03      	ldrh	r3, [r0, #32]
     bfe:	055b      	lsls	r3, r3, #21
     c00:	d1fc      	bne.n	bfc <_adc_init+0x70>
	hri_adc_write_CTRLC_reg(hw, _adcs[i].ctrl_c);
     c02:	00cb      	lsls	r3, r1, #3
     c04:	1a5b      	subs	r3, r3, r1
     c06:	009b      	lsls	r3, r3, #2
     c08:	4a3a      	ldr	r2, [pc, #232]	; (cf4 <_adc_init+0x168>)
     c0a:	18d3      	adds	r3, r2, r3
     c0c:	891b      	ldrh	r3, [r3, #8]
	((Adc *)hw)->CTRLC.reg = data;
     c0e:	8143      	strh	r3, [r0, #10]
	while (((Adc *)hw)->SYNCBUSY.reg & reg) {
     c10:	8c03      	ldrh	r3, [r0, #32]
     c12:	055b      	lsls	r3, r3, #21
     c14:	d1fc      	bne.n	c10 <_adc_init+0x84>
	hri_adc_write_AVGCTRL_reg(hw, _adcs[i].avg_ctrl);
     c16:	00cb      	lsls	r3, r1, #3
     c18:	1a5b      	subs	r3, r3, r1
     c1a:	009b      	lsls	r3, r3, #2
     c1c:	4a35      	ldr	r2, [pc, #212]	; (cf4 <_adc_init+0x168>)
     c1e:	18d3      	adds	r3, r2, r3
     c20:	7a9b      	ldrb	r3, [r3, #10]
	((Adc *)hw)->AVGCTRL.reg = data;
     c22:	7303      	strb	r3, [r0, #12]
	while (((Adc *)hw)->SYNCBUSY.reg & reg) {
     c24:	8c03      	ldrh	r3, [r0, #32]
     c26:	055b      	lsls	r3, r3, #21
     c28:	d1fc      	bne.n	c24 <_adc_init+0x98>
	hri_adc_write_SAMPCTRL_reg(hw, _adcs[i].samp_ctrl);
     c2a:	00cb      	lsls	r3, r1, #3
     c2c:	1a5b      	subs	r3, r3, r1
     c2e:	009b      	lsls	r3, r3, #2
     c30:	4a30      	ldr	r2, [pc, #192]	; (cf4 <_adc_init+0x168>)
     c32:	18d3      	adds	r3, r2, r3
     c34:	7adb      	ldrb	r3, [r3, #11]
	((Adc *)hw)->SAMPCTRL.reg = data;
     c36:	7343      	strb	r3, [r0, #13]
	while (((Adc *)hw)->SYNCBUSY.reg & reg) {
     c38:	8c03      	ldrh	r3, [r0, #32]
     c3a:	055b      	lsls	r3, r3, #21
     c3c:	d1fc      	bne.n	c38 <_adc_init+0xac>
	hri_adc_write_WINLT_reg(hw, _adcs[i].win_lt);
     c3e:	00cb      	lsls	r3, r1, #3
     c40:	1a5b      	subs	r3, r3, r1
     c42:	009b      	lsls	r3, r3, #2
     c44:	4a2b      	ldr	r2, [pc, #172]	; (cf4 <_adc_init+0x168>)
     c46:	18d3      	adds	r3, r2, r3
     c48:	899b      	ldrh	r3, [r3, #12]
	((Adc *)hw)->WINLT.reg = data;
     c4a:	81c3      	strh	r3, [r0, #14]
	while (((Adc *)hw)->SYNCBUSY.reg & reg) {
     c4c:	2240      	movs	r2, #64	; 0x40
     c4e:	8c03      	ldrh	r3, [r0, #32]
     c50:	4213      	tst	r3, r2
     c52:	d1fc      	bne.n	c4e <_adc_init+0xc2>
	hri_adc_write_WINUT_reg(hw, _adcs[i].win_ut);
     c54:	00cb      	lsls	r3, r1, #3
     c56:	1a5b      	subs	r3, r3, r1
     c58:	009b      	lsls	r3, r3, #2
     c5a:	4a26      	ldr	r2, [pc, #152]	; (cf4 <_adc_init+0x168>)
     c5c:	18d3      	adds	r3, r2, r3
     c5e:	89db      	ldrh	r3, [r3, #14]
	((Adc *)hw)->WINUT.reg = data;
     c60:	8203      	strh	r3, [r0, #16]
	while (((Adc *)hw)->SYNCBUSY.reg & reg) {
     c62:	2280      	movs	r2, #128	; 0x80
     c64:	8c03      	ldrh	r3, [r0, #32]
     c66:	4213      	tst	r3, r2
     c68:	d1fc      	bne.n	c64 <_adc_init+0xd8>
	hri_adc_write_GAINCORR_reg(hw, _adcs[i].gain_corr);
     c6a:	00cb      	lsls	r3, r1, #3
     c6c:	1a5b      	subs	r3, r3, r1
     c6e:	009b      	lsls	r3, r3, #2
     c70:	4a20      	ldr	r2, [pc, #128]	; (cf4 <_adc_init+0x168>)
     c72:	18d3      	adds	r3, r2, r3
     c74:	8a1b      	ldrh	r3, [r3, #16]
	((Adc *)hw)->GAINCORR.reg = data;
     c76:	8243      	strh	r3, [r0, #18]
	while (((Adc *)hw)->SYNCBUSY.reg & reg) {
     c78:	2280      	movs	r2, #128	; 0x80
     c7a:	0052      	lsls	r2, r2, #1
     c7c:	8c03      	ldrh	r3, [r0, #32]
     c7e:	4213      	tst	r3, r2
     c80:	d1fc      	bne.n	c7c <_adc_init+0xf0>
	hri_adc_write_OFFSETCORR_reg(hw, _adcs[i].offset_corr);
     c82:	00cb      	lsls	r3, r1, #3
     c84:	1a5b      	subs	r3, r3, r1
     c86:	009b      	lsls	r3, r3, #2
     c88:	4a1a      	ldr	r2, [pc, #104]	; (cf4 <_adc_init+0x168>)
     c8a:	18d3      	adds	r3, r2, r3
     c8c:	8a5b      	ldrh	r3, [r3, #18]
	((Adc *)hw)->OFFSETCORR.reg = data;
     c8e:	8283      	strh	r3, [r0, #20]
	while (((Adc *)hw)->SYNCBUSY.reg & reg) {
     c90:	2280      	movs	r2, #128	; 0x80
     c92:	0092      	lsls	r2, r2, #2
     c94:	8c03      	ldrh	r3, [r0, #32]
     c96:	4213      	tst	r3, r2
     c98:	d1fc      	bne.n	c94 <_adc_init+0x108>
	hri_adc_write_DBGCTRL_reg(hw, _adcs[i].dbg_ctrl);
     c9a:	4c16      	ldr	r4, [pc, #88]	; (cf4 <_adc_init+0x168>)
     c9c:	00cb      	lsls	r3, r1, #3
     c9e:	1a5a      	subs	r2, r3, r1
     ca0:	0092      	lsls	r2, r2, #2
     ca2:	18a2      	adds	r2, r4, r2
     ca4:	7d12      	ldrb	r2, [r2, #20]
	((Adc *)hw)->DBGCTRL.reg = data;
     ca6:	7702      	strb	r2, [r0, #28]
	((Adc *)hw)->SEQCTRL.reg = data;
     ca8:	2200      	movs	r2, #0
     caa:	6282      	str	r2, [r0, #40]	; 0x28
	hri_adc_write_SEQCTRL_reg(hw, _adcs[i].seq_ctrl);
	hri_adc_write_CTRLA_reg(hw, _adcs[i].ctrl_a);
     cac:	1a59      	subs	r1, r3, r1
     cae:	0089      	lsls	r1, r1, #2
     cb0:	1861      	adds	r1, r4, r1
     cb2:	784b      	ldrb	r3, [r1, #1]
	((Adc *)hw)->CTRLA.reg = data;
     cb4:	7003      	strb	r3, [r0, #0]
	while (((Adc *)hw)->SYNCBUSY.reg & reg) {
     cb6:	3203      	adds	r2, #3
     cb8:	8c03      	ldrh	r3, [r0, #32]
     cba:	4213      	tst	r3, r2
     cbc:	d1fc      	bne.n	cb8 <_adc_init+0x12c>

	return ERR_NONE;
}
     cbe:	2000      	movs	r0, #0
     cc0:	bd10      	pop	{r4, pc}
		calib_reg = ADC_CALIB_BIASREFBUF((*(uint32_t *)ADC0_FUSES_BIASREFBUF_ADDR >> ADC0_FUSES_BIASREFBUF_Pos))
     cc2:	4b0d      	ldr	r3, [pc, #52]	; (cf8 <_adc_init+0x16c>)
     cc4:	681b      	ldr	r3, [r3, #0]
     cc6:	021c      	lsls	r4, r3, #8
     cc8:	22e0      	movs	r2, #224	; 0xe0
     cca:	00d2      	lsls	r2, r2, #3
     ccc:	4014      	ands	r4, r2
		            | ADC_CALIB_BIASCOMP((*(uint32_t *)ADC0_FUSES_BIASCOMP_ADDR >> ADC0_FUSES_BIASCOMP_Pos));
     cce:	069b      	lsls	r3, r3, #26
     cd0:	0f5b      	lsrs	r3, r3, #29
		calib_reg = ADC_CALIB_BIASREFBUF((*(uint32_t *)ADC0_FUSES_BIASREFBUF_ADDR >> ADC0_FUSES_BIASREFBUF_Pos))
     cd2:	431c      	orrs	r4, r3
     cd4:	e764      	b.n	ba0 <_adc_init+0x14>
		calib_reg = ADC_CALIB_BIASREFBUF((*(uint32_t *)ADC1_FUSES_BIASREFBUF_ADDR >> ADC1_FUSES_BIASREFBUF_Pos))
     cd6:	4b08      	ldr	r3, [pc, #32]	; (cf8 <_adc_init+0x16c>)
     cd8:	681b      	ldr	r3, [r3, #0]
     cda:	009c      	lsls	r4, r3, #2
     cdc:	22e0      	movs	r2, #224	; 0xe0
     cde:	00d2      	lsls	r2, r2, #3
     ce0:	4014      	ands	r4, r2
		            | ADC_CALIB_BIASCOMP((*(uint32_t *)ADC1_FUSES_BIASCOMP_ADDR >> ADC1_FUSES_BIASCOMP_Pos));
     ce2:	051b      	lsls	r3, r3, #20
     ce4:	0f5b      	lsrs	r3, r3, #29
		calib_reg = ADC_CALIB_BIASREFBUF((*(uint32_t *)ADC1_FUSES_BIASREFBUF_ADDR >> ADC1_FUSES_BIASREFBUF_Pos))
     ce6:	431c      	orrs	r4, r3
     ce8:	e75a      	b.n	ba0 <_adc_init+0x14>
     cea:	46c0      	nop			; (mov r8, r8)
     cec:	42004400 	.word	0x42004400
     cf0:	42004800 	.word	0x42004800
     cf4:	00003e98 	.word	0x00003e98
     cf8:	00806020 	.word	0x00806020

00000cfc <_adc_get_regs>:
{
     cfc:	b510      	push	{r4, lr}
	return ((uint32_t)hw - (uint32_t)ADC0) >> 10;
     cfe:	4b07      	ldr	r3, [pc, #28]	; (d1c <_adc_get_regs+0x20>)
     d00:	469c      	mov	ip, r3
     d02:	4460      	add	r0, ip
     d04:	0a80      	lsrs	r0, r0, #10
		if (_adcs[i].number == n) {
     d06:	b2c0      	uxtb	r0, r0
     d08:	2800      	cmp	r0, #0
     d0a:	d004      	beq.n	d16 <_adc_get_regs+0x1a>
	ASSERT(false);
     d0c:	228d      	movs	r2, #141	; 0x8d
     d0e:	4904      	ldr	r1, [pc, #16]	; (d20 <_adc_get_regs+0x24>)
     d10:	2000      	movs	r0, #0
     d12:	4b04      	ldr	r3, [pc, #16]	; (d24 <_adc_get_regs+0x28>)
     d14:	4798      	blx	r3
}
     d16:	2000      	movs	r0, #0
     d18:	bd10      	pop	{r4, pc}
     d1a:	46c0      	nop			; (mov r8, r8)
     d1c:	bdffbc00 	.word	0xbdffbc00
     d20:	00003eb4 	.word	0x00003eb4
     d24:	00000b49 	.word	0x00000b49

00000d28 <_adc_sync_init>:

/**
 * \brief Initialize ADC
 */
int32_t _adc_sync_init(struct _adc_sync_device *const device, void *const hw)
{
     d28:	b570      	push	{r4, r5, r6, lr}
     d2a:	0005      	movs	r5, r0
     d2c:	000c      	movs	r4, r1
	ASSERT(device);
     d2e:	1e43      	subs	r3, r0, #1
     d30:	4198      	sbcs	r0, r3
     d32:	b2c0      	uxtb	r0, r0
     d34:	22dd      	movs	r2, #221	; 0xdd
     d36:	4906      	ldr	r1, [pc, #24]	; (d50 <_adc_sync_init+0x28>)
     d38:	4b06      	ldr	r3, [pc, #24]	; (d54 <_adc_sync_init+0x2c>)
     d3a:	4798      	blx	r3

	device->hw = hw;
     d3c:	602c      	str	r4, [r5, #0]

	return _adc_init(hw, _adc_get_regs((uint32_t)hw));
     d3e:	0020      	movs	r0, r4
     d40:	4b05      	ldr	r3, [pc, #20]	; (d58 <_adc_sync_init+0x30>)
     d42:	4798      	blx	r3
     d44:	0001      	movs	r1, r0
     d46:	0020      	movs	r0, r4
     d48:	4b04      	ldr	r3, [pc, #16]	; (d5c <_adc_sync_init+0x34>)
     d4a:	4798      	blx	r3
}
     d4c:	bd70      	pop	{r4, r5, r6, pc}
     d4e:	46c0      	nop			; (mov r8, r8)
     d50:	00003eb4 	.word	0x00003eb4
     d54:	00000b49 	.word	0x00000b49
     d58:	00000cfd 	.word	0x00000cfd
     d5c:	00000b8d 	.word	0x00000b8d

00000d60 <_adc_sync_enable_channel>:
 */
void _adc_sync_enable_channel(struct _adc_sync_device *const device, const uint8_t channel)
{
	(void)channel;

	hri_adc_set_CTRLA_ENABLE_bit(device->hw);
     d60:	6802      	ldr	r2, [r0, #0]
	((Adc *)hw)->CTRLA.reg |= ADC_CTRLA_ENABLE;
     d62:	7813      	ldrb	r3, [r2, #0]
     d64:	2102      	movs	r1, #2
     d66:	430b      	orrs	r3, r1
     d68:	7013      	strb	r3, [r2, #0]
	while (((Adc *)hw)->SYNCBUSY.reg & reg) {
     d6a:	3101      	adds	r1, #1
     d6c:	8c13      	ldrh	r3, [r2, #32]
     d6e:	420b      	tst	r3, r1
     d70:	d1fc      	bne.n	d6c <_adc_sync_enable_channel+0xc>
}
     d72:	4770      	bx	lr

00000d74 <_adc_sync_get_data_size>:
/**
 * \brief Retrieve ADC conversion data size
 */
uint8_t _adc_sync_get_data_size(const struct _adc_sync_device *const device)
{
	return hri_adc_read_CTRLC_RESSEL_bf(device->hw) == ADC_CTRLC_RESSEL_8BIT_Val ? 1 : 2;
     d74:	6803      	ldr	r3, [r0, #0]
	tmp = ((Adc *)hw)->CTRLC.reg;
     d76:	8958      	ldrh	r0, [r3, #10]
	tmp = (tmp & ADC_CTRLC_RESSEL_Msk) >> ADC_CTRLC_RESSEL_Pos;
     d78:	0680      	lsls	r0, r0, #26
     d7a:	0f80      	lsrs	r0, r0, #30
     d7c:	3803      	subs	r0, #3
     d7e:	1e43      	subs	r3, r0, #1
     d80:	4198      	sbcs	r0, r3
     d82:	3001      	adds	r0, #1
}
     d84:	4770      	bx	lr

00000d86 <_adc_sync_is_channel_conversion_done>:
 */
bool _adc_sync_is_channel_conversion_done(const struct _adc_sync_device *const device, const uint8_t channel)
{
	(void)channel;

	return hri_adc_get_interrupt_RESRDY_bit(device->hw);
     d86:	6803      	ldr	r3, [r0, #0]
	return (((Adc *)hw)->INTFLAG.reg & ADC_INTFLAG_RESRDY) >> ADC_INTFLAG_RESRDY_Pos;
     d88:	7998      	ldrb	r0, [r3, #6]
     d8a:	2301      	movs	r3, #1
     d8c:	4018      	ands	r0, r3
}
     d8e:	4770      	bx	lr

00000d90 <_adc_sync_convert>:
/**
 * \brief Make conversion
 */
void _adc_sync_convert(struct _adc_sync_device *const device)
{
	hri_adc_set_SWTRIG_START_bit(device->hw);
     d90:	6802      	ldr	r2, [r0, #0]
	((Adc *)hw)->SWTRIG.reg |= ADC_SWTRIG_START;
     d92:	7e13      	ldrb	r3, [r2, #24]
     d94:	2102      	movs	r1, #2
     d96:	430b      	orrs	r3, r1
     d98:	7613      	strb	r3, [r2, #24]
	while (((Adc *)hw)->SYNCBUSY.reg & reg) {
     d9a:	8c13      	ldrh	r3, [r2, #32]
     d9c:	055b      	lsls	r3, r3, #21
     d9e:	d1fc      	bne.n	d9a <_adc_sync_convert+0xa>
}
     da0:	4770      	bx	lr

00000da2 <_adc_sync_read_channel_data>:
 */
uint16_t _adc_sync_read_channel_data(const struct _adc_sync_device *const device, const uint8_t channel)
{
	(void)channel;

	return hri_adc_read_RESULT_reg(device->hw);
     da2:	6803      	ldr	r3, [r0, #0]
	return ((Adc *)hw)->RESULT.reg;
     da4:	8c98      	ldrh	r0, [r3, #36]	; 0x24
     da6:	b280      	uxth	r0, r0
}
     da8:	4770      	bx	lr
	...

00000dac <_adc_sync_set_inputs>:
/**
 * \brief Set channels input sources
 */
void _adc_sync_set_inputs(struct _adc_sync_device *const device, const adc_pos_input_t pos_input,
                          const adc_neg_input_t neg_input, const uint8_t channel)
{
     dac:	b530      	push	{r4, r5, lr}
	(void)channel;

	hri_adc_write_INPUTCTRL_MUXPOS_bf(device->hw, pos_input);
     dae:	6804      	ldr	r4, [r0, #0]
	tmp = ((Adc *)hw)->INPUTCTRL.reg;
     db0:	8923      	ldrh	r3, [r4, #8]
	tmp &= ~ADC_INPUTCTRL_MUXPOS_Msk;
     db2:	251f      	movs	r5, #31
     db4:	43ab      	bics	r3, r5
	tmp |= ADC_INPUTCTRL_MUXPOS(data);
     db6:	4029      	ands	r1, r5
     db8:	4319      	orrs	r1, r3
	((Adc *)hw)->INPUTCTRL.reg = tmp;
     dba:	8121      	strh	r1, [r4, #8]
	while (((Adc *)hw)->SYNCBUSY.reg & reg) {
     dbc:	8c23      	ldrh	r3, [r4, #32]
     dbe:	055b      	lsls	r3, r3, #21
     dc0:	d1fc      	bne.n	dbc <_adc_sync_set_inputs+0x10>
	hri_adc_write_INPUTCTRL_MUXNEG_bf(device->hw, neg_input);
     dc2:	6801      	ldr	r1, [r0, #0]
	tmp = ((Adc *)hw)->INPUTCTRL.reg;
     dc4:	890b      	ldrh	r3, [r1, #8]
	tmp &= ~ADC_INPUTCTRL_MUXNEG_Msk;
     dc6:	4806      	ldr	r0, [pc, #24]	; (de0 <_adc_sync_set_inputs+0x34>)
     dc8:	4003      	ands	r3, r0
	tmp |= ADC_INPUTCTRL_MUXNEG(data);
     dca:	0212      	lsls	r2, r2, #8
     dcc:	20f8      	movs	r0, #248	; 0xf8
     dce:	0140      	lsls	r0, r0, #5
     dd0:	4002      	ands	r2, r0
     dd2:	431a      	orrs	r2, r3
	((Adc *)hw)->INPUTCTRL.reg = tmp;
     dd4:	810a      	strh	r2, [r1, #8]
	while (((Adc *)hw)->SYNCBUSY.reg & reg) {
     dd6:	8c0b      	ldrh	r3, [r1, #32]
     dd8:	055b      	lsls	r3, r3, #21
     dda:	d1fc      	bne.n	dd6 <_adc_sync_set_inputs+0x2a>
}
     ddc:	bd30      	pop	{r4, r5, pc}
     dde:	46c0      	nop			; (mov r8, r8)
     de0:	ffffe0ff 	.word	0xffffe0ff

00000de4 <_adc_get_adc_sync>:
 * \brief Retrieve ADC sync helper functions
 */
void *_adc_get_adc_sync(void)
{
	return (void *)NULL;
}
     de4:	2000      	movs	r0, #0
     de6:	4770      	bx	lr

00000de8 <_can_async_init>:

/**
 * \brief Initialize CAN.
 */
int32_t _can_async_init(struct _can_async_device *const dev, void *const hw)
{
     de8:	b5f0      	push	{r4, r5, r6, r7, lr}
	dev->hw = hw;
     dea:	6001      	str	r1, [r0, #0]
}

static inline void hri_can_set_CCCR_INIT_bit(const void *const hw)
{
	CAN_CRITICAL_SECTION_ENTER();
	((Can *)hw)->CCCR.reg |= CAN_CCCR_INIT;
     dec:	698b      	ldr	r3, [r1, #24]
     dee:	2201      	movs	r2, #1
     df0:	4313      	orrs	r3, r2
     df2:	618b      	str	r3, [r1, #24]
	hri_can_set_CCCR_INIT_bit(dev->hw);
	while (hri_can_get_CCCR_INIT_bit(dev->hw) == 0)
     df4:	6802      	ldr	r2, [r0, #0]

static inline bool hri_can_get_CCCR_INIT_bit(const void *const hw)
{
	uint32_t tmp;
	tmp = ((Can *)hw)->CCCR.reg;
	tmp = (tmp & CAN_CCCR_INIT) >> CAN_CCCR_INIT_Pos;
     df6:	2401      	movs	r4, #1
	tmp = ((Can *)hw)->CCCR.reg;
     df8:	6993      	ldr	r3, [r2, #24]
     dfa:	421c      	tst	r4, r3
     dfc:	d0fc      	beq.n	df8 <_can_async_init+0x10>
}

static inline void hri_can_set_CCCR_CCE_bit(const void *const hw)
{
	CAN_CRITICAL_SECTION_ENTER();
	((Can *)hw)->CCCR.reg |= CAN_CCCR_CCE;
     dfe:	6993      	ldr	r3, [r2, #24]
     e00:	2402      	movs	r4, #2
     e02:	4323      	orrs	r3, r4
     e04:	6193      	str	r3, [r2, #24]
		;
	hri_can_set_CCCR_CCE_bit(dev->hw);

#ifdef CONF_CAN0_ENABLED
	if (hw == CAN0) {
     e06:	4b37      	ldr	r3, [pc, #220]	; (ee4 <_can_async_init+0xfc>)
     e08:	4299      	cmp	r1, r3
     e0a:	d010      	beq.n	e2e <_can_async_init+0x46>
		hri_can_write_ILE_reg(dev->hw, CAN_ILE_EINT0);
	}
#endif

	/* Disable CCE to prevent Configuration Change */
	hri_can_clear_CCCR_CCE_bit(dev->hw);
     e0c:	6802      	ldr	r2, [r0, #0]
}

static inline void hri_can_clear_CCCR_CCE_bit(const void *const hw)
{
	CAN_CRITICAL_SECTION_ENTER();
	((Can *)hw)->CCCR.reg &= ~CAN_CCCR_CCE;
     e0e:	6993      	ldr	r3, [r2, #24]
     e10:	2102      	movs	r1, #2
     e12:	438b      	bics	r3, r1
     e14:	6193      	str	r3, [r2, #24]
	hri_can_clear_CCCR_INIT_bit(dev->hw);
     e16:	6802      	ldr	r2, [r0, #0]
	((Can *)hw)->CCCR.reg &= ~CAN_CCCR_INIT;
     e18:	6993      	ldr	r3, [r2, #24]
     e1a:	3901      	subs	r1, #1
     e1c:	438b      	bics	r3, r1
     e1e:	6193      	str	r3, [r2, #24]
	while (hri_can_get_CCCR_INIT_bit(dev->hw)) {
     e20:	6801      	ldr	r1, [r0, #0]
	tmp = (tmp & CAN_CCCR_INIT) >> CAN_CCCR_INIT_Pos;
     e22:	2201      	movs	r2, #1
	tmp = ((Can *)hw)->CCCR.reg;
     e24:	698b      	ldr	r3, [r1, #24]
     e26:	421a      	tst	r2, r3
     e28:	d1fc      	bne.n	e24 <_can_async_init+0x3c>
	};

	return ERR_NONE;
}
     e2a:	2000      	movs	r0, #0
     e2c:	bdf0      	pop	{r4, r5, r6, r7, pc}
		_can0_dev    = dev;
     e2e:	4b2e      	ldr	r3, [pc, #184]	; (ee8 <_can_async_init+0x100>)
     e30:	001a      	movs	r2, r3
     e32:	c201      	stmia	r2!, {r0}
		dev->context = (void *)&_can0_context;
     e34:	492d      	ldr	r1, [pc, #180]	; (eec <_can_async_init+0x104>)
     e36:	6181      	str	r1, [r0, #24]
		hri_can_set_CCCR_reg(dev->hw, CONF_CAN0_CCCR_REG);
     e38:	6804      	ldr	r4, [r0, #0]
}

static inline void hri_can_set_CCCR_reg(const void *const hw, hri_can_cccr_reg_t mask)
{
	CAN_CRITICAL_SECTION_ENTER();
	((Can *)hw)->CCCR.reg |= mask;
     e3a:	69a5      	ldr	r5, [r4, #24]
     e3c:	2180      	movs	r1, #128	; 0x80
     e3e:	0049      	lsls	r1, r1, #1
     e40:	4329      	orrs	r1, r5
     e42:	61a1      	str	r1, [r4, #24]
		hri_can_write_MRCFG_reg(dev->hw, CONF_CAN0_MRCFG_REG);
     e44:	6804      	ldr	r4, [r0, #0]
	((Can *)hw)->MRCFG.reg = data;
     e46:	2100      	movs	r1, #0
     e48:	60a1      	str	r1, [r4, #8]
		hri_can_write_NBTP_reg(dev->hw, CONF_CAN0_BTP_REG);
     e4a:	6804      	ldr	r4, [r0, #0]
}

static inline void hri_can_write_NBTP_reg(const void *const hw, hri_can_nbtp_reg_t data)
{
	CAN_CRITICAL_SECTION_ENTER();
	((Can *)hw)->NBTP.reg = data;
     e4c:	4d28      	ldr	r5, [pc, #160]	; (ef0 <_can_async_init+0x108>)
     e4e:	61e5      	str	r5, [r4, #28]
		hri_can_write_DBTP_reg(dev->hw, CONF_CAN0_DBTP_REG);
     e50:	6804      	ldr	r4, [r0, #0]
	((Can *)hw)->DBTP.reg = data;
     e52:	4d28      	ldr	r5, [pc, #160]	; (ef4 <_can_async_init+0x10c>)
     e54:	60e5      	str	r5, [r4, #12]
		hri_can_write_RXF0C_reg(dev->hw, CONF_CAN0_RXF0C_REG | CAN_RXF0C_F0SA((uint32_t)can0_rx_fifo));
     e56:	4c28      	ldr	r4, [pc, #160]	; (ef8 <_can_async_init+0x110>)
     e58:	0424      	lsls	r4, r4, #16
     e5a:	0c24      	lsrs	r4, r4, #16
     e5c:	2580      	movs	r5, #128	; 0x80
     e5e:	036d      	lsls	r5, r5, #13
     e60:	432c      	orrs	r4, r5
}

static inline void hri_can_write_RXF0C_reg(const void *const hw, hri_can_rxf0c_reg_t data)
{
	CAN_CRITICAL_SECTION_ENTER();
	((Can *)hw)->RXF0C.reg = data;
     e62:	25a0      	movs	r5, #160	; 0xa0
     e64:	6806      	ldr	r6, [r0, #0]
     e66:	5174      	str	r4, [r6, r5]
}

static inline void hri_can_write_RXESC_reg(const void *const hw, hri_can_rxesc_reg_t data)
{
	CAN_CRITICAL_SECTION_ENTER();
	((Can *)hw)->RXESC.reg = data;
     e68:	3d99      	subs	r5, #153	; 0x99
     e6a:	24bc      	movs	r4, #188	; 0xbc
     e6c:	6806      	ldr	r6, [r0, #0]
     e6e:	5135      	str	r5, [r6, r4]
}

static inline void hri_can_write_TXESC_reg(const void *const hw, hri_can_txesc_reg_t data)
{
	CAN_CRITICAL_SECTION_ENTER();
	((Can *)hw)->TXESC.reg = data;
     e70:	340c      	adds	r4, #12
     e72:	6805      	ldr	r5, [r0, #0]
     e74:	5129      	str	r1, [r5, r4]
		hri_can_write_TXBC_reg(dev->hw, CONF_CAN0_TXBC_REG | CAN_TXBC_TBSA((uint32_t)can0_tx_fifo));
     e76:	4c21      	ldr	r4, [pc, #132]	; (efc <_can_async_init+0x114>)
     e78:	0424      	lsls	r4, r4, #16
     e7a:	0c24      	lsrs	r4, r4, #16
     e7c:	2580      	movs	r5, #128	; 0x80
     e7e:	04ad      	lsls	r5, r5, #18
     e80:	432c      	orrs	r4, r5
	((Can *)hw)->TXBC.reg = data;
     e82:	25c0      	movs	r5, #192	; 0xc0
     e84:	6806      	ldr	r6, [r0, #0]
     e86:	5174      	str	r4, [r6, r5]
		hri_can_write_TXEFC_reg(dev->hw, CONF_CAN0_TXEFC_REG | CAN_TXEFC_EFSA((uint32_t)can0_tx_event_fifo));
     e88:	0412      	lsls	r2, r2, #16
     e8a:	0c12      	lsrs	r2, r2, #16
     e8c:	2480      	movs	r4, #128	; 0x80
     e8e:	02a4      	lsls	r4, r4, #10
     e90:	4322      	orrs	r2, r4
}

static inline void hri_can_write_TXEFC_reg(const void *const hw, hri_can_txefc_reg_t data)
{
	CAN_CRITICAL_SECTION_ENTER();
	((Can *)hw)->TXEFC.reg = data;
     e92:	3530      	adds	r5, #48	; 0x30
     e94:	6806      	ldr	r6, [r0, #0]
     e96:	5172      	str	r2, [r6, r5]
	((Can *)hw)->GFC.reg = data;
     e98:	3d70      	subs	r5, #112	; 0x70
     e9a:	2228      	movs	r2, #40	; 0x28
     e9c:	6806      	ldr	r6, [r0, #0]
     e9e:	5172      	str	r2, [r6, r5]
		hri_can_write_SIDFC_reg(dev->hw, CONF_CAN0_SIDFC_REG | CAN_SIDFC_FLSSA((uint32_t)can0_rx_std_filter));
     ea0:	001a      	movs	r2, r3
     ea2:	3214      	adds	r2, #20
     ea4:	0412      	lsls	r2, r2, #16
     ea6:	0c12      	lsrs	r2, r2, #16
     ea8:	4322      	orrs	r2, r4
	((Can *)hw)->SIDFC.reg = data;
     eaa:	2684      	movs	r6, #132	; 0x84
     eac:	6807      	ldr	r7, [r0, #0]
     eae:	51ba      	str	r2, [r7, r6]
		hri_can_write_XIDFC_reg(dev->hw, CONF_CAN0_XIDFC_REG | CAN_XIDFC_FLESA((uint32_t)can0_rx_ext_filter));
     eb0:	331c      	adds	r3, #28
     eb2:	041b      	lsls	r3, r3, #16
     eb4:	0c1b      	lsrs	r3, r3, #16
     eb6:	4323      	orrs	r3, r4
	((Can *)hw)->XIDFC.reg = data;
     eb8:	2288      	movs	r2, #136	; 0x88
     eba:	6804      	ldr	r4, [r0, #0]
     ebc:	50a3      	str	r3, [r4, r2]
	((Can *)hw)->XIDAM.reg = data;
     ebe:	2390      	movs	r3, #144	; 0x90
     ec0:	6802      	ldr	r2, [r0, #0]
     ec2:	50d1      	str	r1, [r2, r3]
 */
__STATIC_INLINE void __NVIC_DisableIRQ(IRQn_Type IRQn)
{
  if ((int32_t)(IRQn) >= 0)
  {
    NVIC->ICER[0U] = (uint32_t)(1UL << (((uint32_t)IRQn) & 0x1FUL));
     ec4:	4b0e      	ldr	r3, [pc, #56]	; (f00 <_can_async_init+0x118>)
     ec6:	2280      	movs	r2, #128	; 0x80
     ec8:	0212      	lsls	r2, r2, #8
     eca:	515a      	str	r2, [r3, r5]
  \details Acts as a special kind of Data Memory Barrier.
           It completes when all explicit memory accesses before this instruction complete.
 */
__STATIC_FORCEINLINE void __DSB(void)
{
  __ASM volatile ("dsb 0xF":::"memory");
     ecc:	f3bf 8f4f 	dsb	sy
  __ASM volatile ("isb 0xF":::"memory");
     ed0:	f3bf 8f6f 	isb	sy
 */
__STATIC_INLINE void __NVIC_ClearPendingIRQ(IRQn_Type IRQn)
{
  if ((int32_t)(IRQn) >= 0)
  {
    NVIC->ICPR[0U] = (uint32_t)(1UL << (((uint32_t)IRQn) & 0x1FUL));
     ed4:	3181      	adds	r1, #129	; 0x81
     ed6:	31ff      	adds	r1, #255	; 0xff
     ed8:	505a      	str	r2, [r3, r1]
    NVIC->ISER[0U] = (uint32_t)(1UL << (((uint32_t)IRQn) & 0x1FUL));
     eda:	601a      	str	r2, [r3, #0]
		hri_can_write_ILE_reg(dev->hw, CAN_ILE_EINT0);
     edc:	6803      	ldr	r3, [r0, #0]
	((Can *)hw)->ILE.reg = data;
     ede:	2201      	movs	r2, #1
     ee0:	65da      	str	r2, [r3, #92]	; 0x5c
     ee2:	e793      	b.n	e0c <_can_async_init+0x24>
     ee4:	42001c00 	.word	0x42001c00
     ee8:	20000098 	.word	0x20000098
     eec:	20000000 	.word	0x20000000
     ef0:	06020a07 	.word	0x06020a07
     ef4:	00000a33 	.word	0x00000a33
     ef8:	2000010c 	.word	0x2000010c
     efc:	2000058c 	.word	0x2000058c
     f00:	e000e100 	.word	0xe000e100

00000f04 <CAN0_Handler>:

/*
 * \brief CAN interrupt handler
 */
void CAN0_Handler(void)
{
     f04:	b570      	push	{r4, r5, r6, lr}
	struct _can_async_device *dev = _can0_dev;
     f06:	4b19      	ldr	r3, [pc, #100]	; (f6c <CAN0_Handler+0x68>)
     f08:	681d      	ldr	r5, [r3, #0]
	uint32_t                  ir;
	ir = hri_can_read_IR_reg(dev->hw);
     f0a:	682b      	ldr	r3, [r5, #0]
	return ((Can *)hw)->IR.reg;
     f0c:	6d1c      	ldr	r4, [r3, #80]	; 0x50

	if (ir & CAN_IR_RF0N) {
     f0e:	07e3      	lsls	r3, r4, #31
     f10:	d414      	bmi.n	f3c <CAN0_Handler+0x38>
		dev->cb.rx_done(dev);
	}

	if (ir & CAN_IR_TC) {
     f12:	05a3      	lsls	r3, r4, #22
     f14:	d416      	bmi.n	f44 <CAN0_Handler+0x40>
		dev->cb.tx_done(dev);
	}

	if (ir & CAN_IR_BO) {
     f16:	01a3      	lsls	r3, r4, #6
     f18:	d418      	bmi.n	f4c <CAN0_Handler+0x48>
		dev->cb.irq_handler(dev, CAN_IRQ_BO);
	}

	if (ir & CAN_IR_EW) {
     f1a:	01e3      	lsls	r3, r4, #7
     f1c:	d41b      	bmi.n	f56 <CAN0_Handler+0x52>
		dev->cb.irq_handler(dev, CAN_IRQ_EW);
	}

	if (ir & CAN_IR_EP) {
     f1e:	0223      	lsls	r3, r4, #8
     f20:	d507      	bpl.n	f32 <CAN0_Handler+0x2e>
		dev->cb.irq_handler(dev, hri_can_get_PSR_EP_bit(dev->hw) ? CAN_IRQ_EP : CAN_IRQ_EA);
     f22:	682b      	ldr	r3, [r5, #0]
	return (((Can *)hw)->PSR.reg & CAN_PSR_EP) >> CAN_PSR_EP_Pos;
     f24:	6c59      	ldr	r1, [r3, #68]	; 0x44
     f26:	0689      	lsls	r1, r1, #26
     f28:	0fc9      	lsrs	r1, r1, #31
     f2a:	3101      	adds	r1, #1
     f2c:	0028      	movs	r0, r5
     f2e:	68eb      	ldr	r3, [r5, #12]
     f30:	4798      	blx	r3
	}

	if (ir & CAN_IR_RF0L) {
     f32:	0723      	lsls	r3, r4, #28
     f34:	d414      	bmi.n	f60 <CAN0_Handler+0x5c>
		dev->cb.irq_handler(dev, CAN_IRQ_DO);
	}

	hri_can_write_IR_reg(dev->hw, ir);
     f36:	682b      	ldr	r3, [r5, #0]
	((Can *)hw)->IR.reg = data;
     f38:	651c      	str	r4, [r3, #80]	; 0x50
}
     f3a:	bd70      	pop	{r4, r5, r6, pc}
		dev->cb.rx_done(dev);
     f3c:	0028      	movs	r0, r5
     f3e:	68ab      	ldr	r3, [r5, #8]
     f40:	4798      	blx	r3
     f42:	e7e6      	b.n	f12 <CAN0_Handler+0xe>
		dev->cb.tx_done(dev);
     f44:	0028      	movs	r0, r5
     f46:	686b      	ldr	r3, [r5, #4]
     f48:	4798      	blx	r3
     f4a:	e7e4      	b.n	f16 <CAN0_Handler+0x12>
		dev->cb.irq_handler(dev, CAN_IRQ_BO);
     f4c:	2103      	movs	r1, #3
     f4e:	0028      	movs	r0, r5
     f50:	68eb      	ldr	r3, [r5, #12]
     f52:	4798      	blx	r3
     f54:	e7e1      	b.n	f1a <CAN0_Handler+0x16>
		dev->cb.irq_handler(dev, CAN_IRQ_EW);
     f56:	2100      	movs	r1, #0
     f58:	0028      	movs	r0, r5
     f5a:	68eb      	ldr	r3, [r5, #12]
     f5c:	4798      	blx	r3
     f5e:	e7de      	b.n	f1e <CAN0_Handler+0x1a>
		dev->cb.irq_handler(dev, CAN_IRQ_DO);
     f60:	2104      	movs	r1, #4
     f62:	0028      	movs	r0, r5
     f64:	68eb      	ldr	r3, [r5, #12]
     f66:	4798      	blx	r3
     f68:	e7e5      	b.n	f36 <CAN0_Handler+0x32>
     f6a:	46c0      	nop			; (mov r8, r8)
     f6c:	20000098 	.word	0x20000098

00000f70 <_init_chip>:

/**
 * \brief Initialize the hardware abstraction layer
 */
void _init_chip(void)
{
     f70:	b510      	push	{r4, lr}
}

static inline void hri_nvmctrl_set_CTRLB_RWS_bf(const void *const hw, hri_nvmctrl_ctrlb_reg_t mask)
{
	NVMCTRL_CRITICAL_SECTION_ENTER();
	((Nvmctrl *)hw)->CTRLB.reg |= NVMCTRL_CTRLB_RWS(mask);
     f72:	4a09      	ldr	r2, [pc, #36]	; (f98 <_init_chip+0x28>)
     f74:	6853      	ldr	r3, [r2, #4]
     f76:	2102      	movs	r1, #2
     f78:	430b      	orrs	r3, r1
     f7a:	6053      	str	r3, [r2, #4]
	hri_nvmctrl_set_CTRLB_RWS_bf(NVMCTRL, CONF_NVM_WAIT_STATE);

	_osc32kctrl_init_sources();
     f7c:	4b07      	ldr	r3, [pc, #28]	; (f9c <_init_chip+0x2c>)
     f7e:	4798      	blx	r3
	_oscctrl_init_sources();
     f80:	4b07      	ldr	r3, [pc, #28]	; (fa0 <_init_chip+0x30>)
     f82:	4798      	blx	r3
	_mclk_init();
     f84:	4b07      	ldr	r3, [pc, #28]	; (fa4 <_init_chip+0x34>)
     f86:	4798      	blx	r3
#if _GCLK_INIT_1ST
	_gclk_init_generators_by_fref(_GCLK_INIT_1ST);
#endif
	_oscctrl_init_referenced_generators();
     f88:	4b07      	ldr	r3, [pc, #28]	; (fa8 <_init_chip+0x38>)
     f8a:	4798      	blx	r3
	_gclk_init_generators_by_fref(_GCLK_INIT_LAST);
     f8c:	20ff      	movs	r0, #255	; 0xff
     f8e:	4b07      	ldr	r3, [pc, #28]	; (fac <_init_chip+0x3c>)
     f90:	4798      	blx	r3

	_div_init();
     f92:	4b07      	ldr	r3, [pc, #28]	; (fb0 <_init_chip+0x40>)
     f94:	4798      	blx	r3
#endif

#if (CONF_PORT_EVCTRL_PORT_0 | CONF_PORT_EVCTRL_PORT_1 | CONF_PORT_EVCTRL_PORT_2 | CONF_PORT_EVCTRL_PORT_3)
	_port_event_init();
#endif
}
     f96:	bd10      	pop	{r4, pc}
     f98:	41004000 	.word	0x41004000
     f9c:	000010c9 	.word	0x000010c9
     fa0:	000010e1 	.word	0x000010e1
     fa4:	000010bd 	.word	0x000010bd
     fa8:	00001101 	.word	0x00001101
     fac:	00001069 	.word	0x00001069
     fb0:	00000fb5 	.word	0x00000fb5

00000fb4 <_div_init>:

static inline void hri_divas_write_CTRLA_DLZ_bit(const void *const hw, bool value)
{
	uint8_t tmp;
	DIVAS_CRITICAL_SECTION_ENTER();
	tmp = ((Divas *)hw)->CTRLA.reg;
     fb4:	2290      	movs	r2, #144	; 0x90
     fb6:	05d2      	lsls	r2, r2, #23
     fb8:	7813      	ldrb	r3, [r2, #0]
	tmp &= ~DIVAS_CTRLA_DLZ;
     fba:	2102      	movs	r1, #2
     fbc:	438b      	bics	r3, r1
	tmp |= value << DIVAS_CTRLA_DLZ_Pos;
	((Divas *)hw)->CTRLA.reg = tmp;
     fbe:	7013      	strb	r3, [r2, #0]
 * \brief Initialize hardware for division operation
 */
void _div_init(void)
{
	hri_divas_write_CTRLA_DLZ_bit(DIVAS, CONF_DIVAS_DLZ);
}
     fc0:	4770      	bx	lr

00000fc2 <__aeabi_uidiv>:

/**
 * \brief Do unsigned division
 */
uint32_t __aeabi_uidiv(uint32_t numerator, uint32_t denominator)
{
     fc2:	b510      	push	{r4, lr}
     fc4:	b082      	sub	sp, #8
  __ASM volatile ("MRS %0, primask" : "=r" (result) :: "memory");
     fc6:	f3ef 8310 	mrs	r3, PRIMASK
	uint32_t res;
	_DIVAS_CRITICAL_ENTER();
     fca:	9301      	str	r3, [sp, #4]
  __ASM volatile ("cpsid i" : : : "memory");
     fcc:	b672      	cpsid	i
	DIVAS->CTRLA.bit.SIGNED = s;
     fce:	2390      	movs	r3, #144	; 0x90
     fd0:	05db      	lsls	r3, r3, #23
     fd2:	781a      	ldrb	r2, [r3, #0]
     fd4:	2401      	movs	r4, #1
     fd6:	43a2      	bics	r2, r4
     fd8:	701a      	strb	r2, [r3, #0]
	DIVAS->DIVIDEND.reg     = n;
     fda:	6098      	str	r0, [r3, #8]
	DIVAS->DIVISOR.reg      = d;
     fdc:	60d9      	str	r1, [r3, #12]
	while (DIVAS->STATUS.bit.BUSY) {
     fde:	001a      	movs	r2, r3
     fe0:	7913      	ldrb	r3, [r2, #4]
     fe2:	07db      	lsls	r3, r3, #31
     fe4:	d4fc      	bmi.n	fe0 <__aeabi_uidiv+0x1e>
	_divas_div(0, numerator, denominator);
	res = _divas_result32();
     fe6:	2390      	movs	r3, #144	; 0x90
     fe8:	05db      	lsls	r3, r3, #23
     fea:	6918      	ldr	r0, [r3, #16]
	_DIVAS_CRITICAL_LEAVE();
     fec:	9b01      	ldr	r3, [sp, #4]
  __ASM volatile ("MSR primask, %0" : : "r" (priMask) : "memory");
     fee:	f383 8810 	msr	PRIMASK, r3
	return res;
}
     ff2:	b002      	add	sp, #8
     ff4:	bd10      	pop	{r4, pc}
	...

00000ff8 <__aeabi_idivmod>:

/**
 * \brief Do signed division, return result and remainder
 */
uint64_t __aeabi_idivmod(int numerator, int denominator)
{
     ff8:	b510      	push	{r4, lr}
     ffa:	b082      	sub	sp, #8
  __ASM volatile ("MRS %0, primask" : "=r" (result) :: "memory");
     ffc:	f3ef 8310 	mrs	r3, PRIMASK
	uint64_t res;
	_DIVAS_CRITICAL_ENTER();
    1000:	9301      	str	r3, [sp, #4]
  __ASM volatile ("cpsid i" : : : "memory");
    1002:	b672      	cpsid	i
	DIVAS->CTRLA.bit.SIGNED = s;
    1004:	2390      	movs	r3, #144	; 0x90
    1006:	05db      	lsls	r3, r3, #23
    1008:	781a      	ldrb	r2, [r3, #0]
    100a:	2401      	movs	r4, #1
    100c:	4322      	orrs	r2, r4
    100e:	701a      	strb	r2, [r3, #0]
	DIVAS->DIVIDEND.reg     = n;
    1010:	6098      	str	r0, [r3, #8]
	DIVAS->DIVISOR.reg      = d;
    1012:	60d9      	str	r1, [r3, #12]
	while (DIVAS->STATUS.bit.BUSY) {
    1014:	001a      	movs	r2, r3
    1016:	7913      	ldrb	r3, [r2, #4]
    1018:	07db      	lsls	r3, r3, #31
    101a:	d4fc      	bmi.n	1016 <STACK_SIZE+0x16>
	_divas_div(1, numerator, denominator);
	res = _divas_result64();
    101c:	4b03      	ldr	r3, [pc, #12]	; (102c <STACK_SIZE+0x2c>)
    101e:	6818      	ldr	r0, [r3, #0]
    1020:	6859      	ldr	r1, [r3, #4]
	_DIVAS_CRITICAL_LEAVE();
    1022:	9b01      	ldr	r3, [sp, #4]
  __ASM volatile ("MSR primask, %0" : : "r" (priMask) : "memory");
    1024:	f383 8810 	msr	PRIMASK, r3
	return res;
}
    1028:	b002      	add	sp, #8
    102a:	bd10      	pop	{r4, pc}
    102c:	48000010 	.word	0x48000010

00001030 <__aeabi_uidivmod>:

/**
 * \brief Do unsigned division, return result and remainder
 */
uint64_t __aeabi_uidivmod(unsigned numerator, unsigned denominator)
{
    1030:	b510      	push	{r4, lr}
    1032:	b082      	sub	sp, #8
  __ASM volatile ("MRS %0, primask" : "=r" (result) :: "memory");
    1034:	f3ef 8310 	mrs	r3, PRIMASK
	uint64_t res;
	_DIVAS_CRITICAL_ENTER();
    1038:	9301      	str	r3, [sp, #4]
  __ASM volatile ("cpsid i" : : : "memory");
    103a:	b672      	cpsid	i
	DIVAS->CTRLA.bit.SIGNED = s;
    103c:	2390      	movs	r3, #144	; 0x90
    103e:	05db      	lsls	r3, r3, #23
    1040:	781a      	ldrb	r2, [r3, #0]
    1042:	2401      	movs	r4, #1
    1044:	43a2      	bics	r2, r4
    1046:	701a      	strb	r2, [r3, #0]
	DIVAS->DIVIDEND.reg     = n;
    1048:	6098      	str	r0, [r3, #8]
	DIVAS->DIVISOR.reg      = d;
    104a:	60d9      	str	r1, [r3, #12]
	while (DIVAS->STATUS.bit.BUSY) {
    104c:	001a      	movs	r2, r3
    104e:	7913      	ldrb	r3, [r2, #4]
    1050:	07db      	lsls	r3, r3, #31
    1052:	d4fc      	bmi.n	104e <__aeabi_uidivmod+0x1e>
	_divas_div(0, numerator, denominator);
	res = _divas_result64();
    1054:	4b03      	ldr	r3, [pc, #12]	; (1064 <__aeabi_uidivmod+0x34>)
    1056:	6818      	ldr	r0, [r3, #0]
    1058:	6859      	ldr	r1, [r3, #4]
	_DIVAS_CRITICAL_LEAVE();
    105a:	9b01      	ldr	r3, [sp, #4]
  __ASM volatile ("MSR primask, %0" : : "r" (priMask) : "memory");
    105c:	f383 8810 	msr	PRIMASK, r3
	return res;
}
    1060:	b002      	add	sp, #8
    1062:	bd10      	pop	{r4, pc}
    1064:	48000010 	.word	0x48000010

00001068 <_gclk_init_generators_by_fref>:

void _gclk_init_generators_by_fref(uint32_t bm)
{

#if CONF_GCLK_GENERATOR_0_CONFIG == 1
	if (bm & (1ul << 0)) {
    1068:	07c3      	lsls	r3, r0, #31
    106a:	d507      	bpl.n	107c <_gclk_init_generators_by_fref+0x14>
	((Gclk *)hw)->GENCTRL[index].reg = data;
    106c:	4a0e      	ldr	r2, [pc, #56]	; (10a8 <_gclk_init_generators_by_fref+0x40>)
    106e:	4b0f      	ldr	r3, [pc, #60]	; (10ac <_gclk_init_generators_by_fref+0x44>)
    1070:	621a      	str	r2, [r3, #32]
	while (((Gclk *)hw)->SYNCBUSY.reg & reg) {
    1072:	0019      	movs	r1, r3
    1074:	4a0e      	ldr	r2, [pc, #56]	; (10b0 <_gclk_init_generators_by_fref+0x48>)
    1076:	684b      	ldr	r3, [r1, #4]
    1078:	4213      	tst	r3, r2
    107a:	d1fc      	bne.n	1076 <_gclk_init_generators_by_fref+0xe>
		        | (CONF_GCLK_GENERATOR_0_CONFIG << GCLK_GENCTRL_GENEN_Pos) | CONF_GCLK_GEN_0_SOURCE);
	}
#endif

#if CONF_GCLK_GENERATOR_1_CONFIG == 1
	if (bm & (1ul << 1)) {
    107c:	0783      	lsls	r3, r0, #30
    107e:	d507      	bpl.n	1090 <_gclk_init_generators_by_fref+0x28>
	((Gclk *)hw)->GENCTRL[index].reg = data;
    1080:	4a0c      	ldr	r2, [pc, #48]	; (10b4 <_gclk_init_generators_by_fref+0x4c>)
    1082:	4b0a      	ldr	r3, [pc, #40]	; (10ac <_gclk_init_generators_by_fref+0x44>)
    1084:	625a      	str	r2, [r3, #36]	; 0x24
	while (((Gclk *)hw)->SYNCBUSY.reg & reg) {
    1086:	0019      	movs	r1, r3
    1088:	4a09      	ldr	r2, [pc, #36]	; (10b0 <_gclk_init_generators_by_fref+0x48>)
    108a:	684b      	ldr	r3, [r1, #4]
    108c:	4213      	tst	r3, r2
    108e:	d1fc      	bne.n	108a <_gclk_init_generators_by_fref+0x22>
		        | (CONF_GCLK_GENERATOR_1_CONFIG << GCLK_GENCTRL_GENEN_Pos) | CONF_GCLK_GEN_1_SOURCE);
	}
#endif

#if CONF_GCLK_GENERATOR_2_CONFIG == 1
	if (bm & (1ul << 2)) {
    1090:	0743      	lsls	r3, r0, #29
    1092:	d507      	bpl.n	10a4 <_gclk_init_generators_by_fref+0x3c>
	((Gclk *)hw)->GENCTRL[index].reg = data;
    1094:	4a08      	ldr	r2, [pc, #32]	; (10b8 <_gclk_init_generators_by_fref+0x50>)
    1096:	4b05      	ldr	r3, [pc, #20]	; (10ac <_gclk_init_generators_by_fref+0x44>)
    1098:	629a      	str	r2, [r3, #40]	; 0x28
	while (((Gclk *)hw)->SYNCBUSY.reg & reg) {
    109a:	0019      	movs	r1, r3
    109c:	4a04      	ldr	r2, [pc, #16]	; (10b0 <_gclk_init_generators_by_fref+0x48>)
    109e:	684b      	ldr	r3, [r1, #4]
    10a0:	4213      	tst	r3, r2
    10a2:	d1fc      	bne.n	109e <_gclk_init_generators_by_fref+0x36>
		        | (CONF_GCLK_GEN_8_DIVSEL << GCLK_GENCTRL_DIVSEL_Pos) | (CONF_GCLK_GEN_8_OE << GCLK_GENCTRL_OE_Pos)
		        | (CONF_GCLK_GEN_8_OOV << GCLK_GENCTRL_OOV_Pos) | (CONF_GCLK_GEN_8_IDC << GCLK_GENCTRL_IDC_Pos)
		        | (CONF_GCLK_GENERATOR_8_CONFIG << GCLK_GENCTRL_GENEN_Pos) | CONF_GCLK_GEN_8_SOURCE);
	}
#endif
}
    10a4:	4770      	bx	lr
    10a6:	46c0      	nop			; (mov r8, r8)
    10a8:	00010100 	.word	0x00010100
    10ac:	40001c00 	.word	0x40001c00
    10b0:	000007fd 	.word	0x000007fd
    10b4:	001e0100 	.word	0x001e0100
    10b8:	000a0100 	.word	0x000a0100

000010bc <_mclk_init>:
	((Mclk *)hw)->CPUDIV.reg = data;
    10bc:	2201      	movs	r2, #1
    10be:	4b01      	ldr	r3, [pc, #4]	; (10c4 <_mclk_init+0x8>)
    10c0:	711a      	strb	r2, [r3, #4]
 */
void _mclk_init(void)
{
	void *hw = (void *)MCLK;
	hri_mclk_write_CPUDIV_reg(hw, MCLK_CPUDIV_CPUDIV(CONF_MCLK_CPUDIV));
}
    10c2:	4770      	bx	lr
    10c4:	40000800 	.word	0x40000800

000010c8 <_osc32kctrl_init_sources>:
}

static inline hri_osc32kctrl_osculp32k_reg_t hri_osc32kctrl_read_OSCULP32K_CALIB_bf(const void *const hw)
{
	uint32_t tmp;
	tmp = ((Osc32kctrl *)hw)->OSCULP32K.reg;
    10c8:	4b04      	ldr	r3, [pc, #16]	; (10dc <_osc32kctrl_init_sources+0x14>)
    10ca:	69da      	ldr	r2, [r3, #28]
	calib = hri_osc32kctrl_read_OSCULP32K_CALIB_bf(hw);
	hri_osc32kctrl_write_OSCULP32K_reg(hw,
#if CONF_OSC32K_CALIB_ENABLE == 1
	                                   OSC32KCTRL_OSCULP32K_CALIB(CONF_OSC32K_CALIB)
#else
	                                   OSC32KCTRL_OSCULP32K_CALIB(calib)
    10cc:	21f8      	movs	r1, #248	; 0xf8
    10ce:	0149      	lsls	r1, r1, #5
    10d0:	400a      	ands	r2, r1
}

static inline void hri_osc32kctrl_write_OSCULP32K_reg(const void *const hw, hri_osc32kctrl_osculp32k_reg_t data)
{
	OSC32KCTRL_CRITICAL_SECTION_ENTER();
	((Osc32kctrl *)hw)->OSCULP32K.reg = data;
    10d2:	61da      	str	r2, [r3, #28]
	((Osc32kctrl *)hw)->RTCCTRL.reg = data;
    10d4:	2201      	movs	r2, #1
    10d6:	611a      	str	r2, [r3, #16]
		;
#endif
#endif
	hri_osc32kctrl_write_RTCCTRL_reg(hw, OSC32KCTRL_RTCCTRL_RTCSEL(CONF_RTCCTRL));
	(void)calib;
}
    10d8:	4770      	bx	lr
    10da:	46c0      	nop			; (mov r8, r8)
    10dc:	40001400 	.word	0x40001400

000010e0 <_oscctrl_init_sources>:
}

static inline void hri_oscctrl_write_XOSCCTRL_reg(const void *const hw, hri_oscctrl_xoscctrl_reg_t data)
{
	OSCCTRL_CRITICAL_SECTION_ENTER();
	((Oscctrl *)hw)->XOSCCTRL.reg = data;
    10e0:	4b05      	ldr	r3, [pc, #20]	; (10f8 <_oscctrl_init_sources+0x18>)
    10e2:	4a06      	ldr	r2, [pc, #24]	; (10fc <_oscctrl_init_sources+0x1c>)
    10e4:	821a      	strh	r2, [r3, #16]
}

static inline void hri_oscctrl_write_EVCTRL_reg(const void *const hw, hri_oscctrl_evctrl_reg_t data)
{
	OSCCTRL_CRITICAL_SECTION_ENTER();
	((Oscctrl *)hw)->EVCTRL.reg = data;
    10e6:	2200      	movs	r2, #0
    10e8:	74da      	strb	r2, [r3, #19]
	return (((Oscctrl *)hw)->STATUS.reg & OSCCTRL_STATUS_XOSCRDY) >> OSCCTRL_STATUS_XOSCRDY_Pos;
    10ea:	0019      	movs	r1, r3
    10ec:	3201      	adds	r2, #1
    10ee:	68cb      	ldr	r3, [r1, #12]
	hri_oscctrl_write_OSC48MSTUP_reg(hw, OSCCTRL_OSC48MSTUP_STARTUP(CONF_OSC48M_STARTUP));
#endif

#if CONF_XOSC_CONFIG == 1
#if CONF_XOSC_ENABLE == 1
	while (!hri_oscctrl_get_STATUS_XOSCRDY_bit(hw))
    10f0:	421a      	tst	r2, r3
    10f2:	d0fc      	beq.n	10ee <_oscctrl_init_sources+0xe>
#if CONF_OSC48M_ONDEMAND == 1
	hri_oscctrl_set_OSC48MCTRL_ONDEMAND_bit(hw);
#endif
#endif
	(void)hw;
}
    10f4:	4770      	bx	lr
    10f6:	46c0      	nop			; (mov r8, r8)
    10f8:	40001000 	.word	0x40001000
    10fc:	ffffc042 	.word	0xffffc042

00001100 <_oscctrl_init_referenced_generators>:
#if CONF_DPLL_ONDEMAND == 1
	hri_oscctrl_set_DPLLCTRLA_ONDEMAND_bit(hw);
#endif
#endif
	(void)hw;
}
    1100:	4770      	bx	lr
	...

00001104 <_usart_init>:
 * \param[in] hw The pointer to hardware instance
 *
 * \return The status of initialization
 */
static int32_t _usart_init(void *const hw)
{
    1104:	b510      	push	{r4, lr}
    1106:	0004      	movs	r4, r0
	return ((uint32_t)hw - (uint32_t)SERCOM0) >> 10;
    1108:	4b1f      	ldr	r3, [pc, #124]	; (1188 <_usart_init+0x84>)
    110a:	18c3      	adds	r3, r0, r3
    110c:	0a9b      	lsrs	r3, r3, #10
		if (_usarts[i].number == sercom_offset) {
    110e:	b2db      	uxtb	r3, r3
    1110:	2b03      	cmp	r3, #3
    1112:	d004      	beq.n	111e <_usart_init+0x1a>
	ASSERT(false);
    1114:	4a1d      	ldr	r2, [pc, #116]	; (118c <_usart_init+0x88>)
    1116:	491e      	ldr	r1, [pc, #120]	; (1190 <_usart_init+0x8c>)
    1118:	2000      	movs	r0, #0
    111a:	4b1e      	ldr	r3, [pc, #120]	; (1194 <_usart_init+0x90>)
    111c:	4798      	blx	r3
	};
}

static inline bool hri_sercomusart_is_syncing(const void *const hw, hri_sercomusart_syncbusy_reg_t reg)
{
	return ((Sercom *)hw)->USART.SYNCBUSY.reg & reg;
    111e:	69e3      	ldr	r3, [r4, #28]
	uint8_t i = _get_sercom_index(hw);

	if (!hri_sercomusart_is_syncing(hw, SERCOM_USART_SYNCBUSY_SWRST)) {
    1120:	07db      	lsls	r3, r3, #31
    1122:	d418      	bmi.n	1156 <_usart_init+0x52>
	while (((Sercom *)hw)->USART.SYNCBUSY.reg & reg) {
    1124:	2203      	movs	r2, #3
    1126:	69e3      	ldr	r3, [r4, #28]
    1128:	421a      	tst	r2, r3
    112a:	d1fc      	bne.n	1126 <_usart_init+0x22>
static inline hri_sercomusart_ctrla_reg_t hri_sercomusart_get_CTRLA_reg(const void *const           hw,
                                                                        hri_sercomusart_ctrla_reg_t mask)
{
	uint32_t tmp;
	hri_sercomusart_wait_for_sync(hw, SERCOM_USART_SYNCBUSY_SWRST | SERCOM_USART_SYNCBUSY_ENABLE);
	tmp = ((Sercom *)hw)->USART.CTRLA.reg;
    112c:	6823      	ldr	r3, [r4, #0]
		uint32_t mode = _usarts[i].ctrl_a & SERCOM_USART_CTRLA_MODE_Msk;
		if (hri_sercomusart_get_CTRLA_reg(hw, SERCOM_USART_CTRLA_ENABLE)) {
    112e:	079b      	lsls	r3, r3, #30
    1130:	d50b      	bpl.n	114a <_usart_init+0x46>
	((Sercom *)hw)->USART.CTRLA.reg &= ~SERCOM_USART_CTRLA_ENABLE;
    1132:	6823      	ldr	r3, [r4, #0]
    1134:	2202      	movs	r2, #2
    1136:	4393      	bics	r3, r2
    1138:	6023      	str	r3, [r4, #0]
	while (((Sercom *)hw)->USART.SYNCBUSY.reg & reg) {
    113a:	3201      	adds	r2, #1
    113c:	69e3      	ldr	r3, [r4, #28]
    113e:	421a      	tst	r2, r3
    1140:	d1fc      	bne.n	113c <_usart_init+0x38>
    1142:	2202      	movs	r2, #2
    1144:	69e3      	ldr	r3, [r4, #28]
    1146:	421a      	tst	r2, r3
    1148:	d1fc      	bne.n	1144 <_usart_init+0x40>
}

static inline void hri_sercomusart_write_CTRLA_reg(const void *const hw, hri_sercomusart_ctrla_reg_t data)
{
	SERCOM_CRITICAL_SECTION_ENTER();
	((Sercom *)hw)->USART.CTRLA.reg = data;
    114a:	2305      	movs	r3, #5
    114c:	6023      	str	r3, [r4, #0]
	while (((Sercom *)hw)->USART.SYNCBUSY.reg & reg) {
    114e:	2203      	movs	r2, #3
    1150:	69e3      	ldr	r3, [r4, #28]
    1152:	421a      	tst	r2, r3
    1154:	d1fc      	bne.n	1150 <_usart_init+0x4c>
    1156:	2201      	movs	r2, #1
    1158:	69e3      	ldr	r3, [r4, #28]
    115a:	421a      	tst	r2, r3
    115c:	d1fc      	bne.n	1158 <_usart_init+0x54>
	((Sercom *)hw)->USART.CTRLA.reg = data;
    115e:	4b0e      	ldr	r3, [pc, #56]	; (1198 <_usart_init+0x94>)
    1160:	6023      	str	r3, [r4, #0]
	while (((Sercom *)hw)->USART.SYNCBUSY.reg & reg) {
    1162:	2203      	movs	r2, #3
    1164:	69e3      	ldr	r3, [r4, #28]
    1166:	421a      	tst	r2, r3
    1168:	d1fc      	bne.n	1164 <_usart_init+0x60>
}

static inline void hri_sercomusart_write_CTRLB_reg(const void *const hw, hri_sercomusart_ctrlb_reg_t data)
{
	SERCOM_CRITICAL_SECTION_ENTER();
	((Sercom *)hw)->USART.CTRLB.reg = data;
    116a:	23c0      	movs	r3, #192	; 0xc0
    116c:	029b      	lsls	r3, r3, #10
    116e:	6063      	str	r3, [r4, #4]
	while (((Sercom *)hw)->USART.SYNCBUSY.reg & reg) {
    1170:	2207      	movs	r2, #7
    1172:	69e3      	ldr	r3, [r4, #28]
    1174:	421a      	tst	r2, r3
    1176:	d1fc      	bne.n	1172 <_usart_init+0x6e>
}

static inline void hri_sercomusart_write_BAUD_reg(const void *const hw, hri_sercomusart_baud_reg_t data)
{
	SERCOM_CRITICAL_SECTION_ENTER();
	((Sercom *)hw)->USART.BAUD.reg = data;
    1178:	4b08      	ldr	r3, [pc, #32]	; (119c <_usart_init+0x98>)
    117a:	81a3      	strh	r3, [r4, #12]
}

static inline void hri_sercomusart_write_RXPL_reg(const void *const hw, hri_sercomusart_rxpl_reg_t data)
{
	SERCOM_CRITICAL_SECTION_ENTER();
	((Sercom *)hw)->USART.RXPL.reg = data;
    117c:	2300      	movs	r3, #0
    117e:	73a3      	strb	r3, [r4, #14]
}

static inline void hri_sercomusart_write_DBGCTRL_reg(const void *const hw, hri_sercomusart_dbgctrl_reg_t data)
{
	SERCOM_CRITICAL_SECTION_ENTER();
	((Sercom *)hw)->USART.DBGCTRL.reg = data;
    1180:	2230      	movs	r2, #48	; 0x30
    1182:	54a3      	strb	r3, [r4, r2]

	hri_sercomusart_write_RXPL_reg(hw, _usarts[i].rxpl);
	hri_sercomusart_write_DBGCTRL_reg(hw, _usarts[i].debug_ctrl);

	return ERR_NONE;
}
    1184:	2000      	movs	r0, #0
    1186:	bd10      	pop	{r4, pc}
    1188:	bdfffc00 	.word	0xbdfffc00
    118c:	0000023a 	.word	0x0000023a
    1190:	00003ecc 	.word	0x00003ecc
    1194:	00000b49 	.word	0x00000b49
    1198:	40100004 	.word	0x40100004
    119c:	fffff045 	.word	0xfffff045

000011a0 <_usart_sync_init>:
{
    11a0:	b570      	push	{r4, r5, r6, lr}
    11a2:	0005      	movs	r5, r0
    11a4:	000c      	movs	r4, r1
	ASSERT(device);
    11a6:	1e43      	subs	r3, r0, #1
    11a8:	4198      	sbcs	r0, r3
    11aa:	b2c0      	uxtb	r0, r0
    11ac:	22b4      	movs	r2, #180	; 0xb4
    11ae:	4904      	ldr	r1, [pc, #16]	; (11c0 <_usart_sync_init+0x20>)
    11b0:	4b04      	ldr	r3, [pc, #16]	; (11c4 <_usart_sync_init+0x24>)
    11b2:	4798      	blx	r3
	device->hw = hw;
    11b4:	602c      	str	r4, [r5, #0]
	return _usart_init(hw);
    11b6:	0020      	movs	r0, r4
    11b8:	4b03      	ldr	r3, [pc, #12]	; (11c8 <_usart_sync_init+0x28>)
    11ba:	4798      	blx	r3
}
    11bc:	bd70      	pop	{r4, r5, r6, pc}
    11be:	46c0      	nop			; (mov r8, r8)
    11c0:	00003ecc 	.word	0x00003ecc
    11c4:	00000b49 	.word	0x00000b49
    11c8:	00001105 	.word	0x00001105

000011cc <_usart_sync_enable>:
	hri_sercomusart_set_CTRLA_ENABLE_bit(device->hw);
    11cc:	6802      	ldr	r2, [r0, #0]
	((Sercom *)hw)->USART.CTRLA.reg |= SERCOM_USART_CTRLA_ENABLE;
    11ce:	6813      	ldr	r3, [r2, #0]
    11d0:	2102      	movs	r1, #2
    11d2:	430b      	orrs	r3, r1
    11d4:	6013      	str	r3, [r2, #0]
	while (((Sercom *)hw)->USART.SYNCBUSY.reg & reg) {
    11d6:	3101      	adds	r1, #1
    11d8:	69d3      	ldr	r3, [r2, #28]
    11da:	4219      	tst	r1, r3
    11dc:	d1fc      	bne.n	11d8 <_usart_sync_enable+0xc>
}
    11de:	4770      	bx	lr

000011e0 <_usart_sync_write_byte>:
	hri_sercomusart_write_DATA_reg(device->hw, data);
    11e0:	6803      	ldr	r3, [r0, #0]
    11e2:	b289      	uxth	r1, r1
	((Sercom *)hw)->USART.DATA.reg = data;
    11e4:	8519      	strh	r1, [r3, #40]	; 0x28
}
    11e6:	4770      	bx	lr

000011e8 <_usart_sync_read_byte>:
	return hri_sercomusart_read_DATA_reg(device->hw);
    11e8:	6803      	ldr	r3, [r0, #0]
	return ((Sercom *)hw)->USART.DATA.reg;
    11ea:	8d18      	ldrh	r0, [r3, #40]	; 0x28
    11ec:	b2c0      	uxtb	r0, r0
}
    11ee:	4770      	bx	lr

000011f0 <_usart_sync_is_ready_to_send>:
	return hri_sercomusart_get_interrupt_DRE_bit(device->hw);
    11f0:	6803      	ldr	r3, [r0, #0]
	return (((Sercom *)hw)->USART.INTFLAG.reg & SERCOM_USART_INTFLAG_DRE) >> SERCOM_USART_INTFLAG_DRE_Pos;
    11f2:	7e18      	ldrb	r0, [r3, #24]
    11f4:	2301      	movs	r3, #1
    11f6:	4018      	ands	r0, r3
}
    11f8:	4770      	bx	lr

000011fa <_usart_sync_is_transmit_done>:
	return hri_sercomusart_get_interrupt_TXC_bit(device->hw);
    11fa:	6803      	ldr	r3, [r0, #0]
	return (((Sercom *)hw)->USART.INTFLAG.reg & SERCOM_USART_INTFLAG_TXC) >> SERCOM_USART_INTFLAG_TXC_Pos;
    11fc:	7e18      	ldrb	r0, [r3, #24]
    11fe:	0780      	lsls	r0, r0, #30
    1200:	0fc0      	lsrs	r0, r0, #31
}
    1202:	4770      	bx	lr

00001204 <_usart_sync_is_byte_received>:
	return hri_sercomusart_get_interrupt_RXC_bit(device->hw);
    1204:	6803      	ldr	r3, [r0, #0]
	return (((Sercom *)hw)->USART.INTFLAG.reg & SERCOM_USART_INTFLAG_RXC) >> SERCOM_USART_INTFLAG_RXC_Pos;
    1206:	7e18      	ldrb	r0, [r3, #24]
    1208:	0740      	lsls	r0, r0, #29
    120a:	0fc0      	lsrs	r0, r0, #31
}
    120c:	4770      	bx	lr
	...

00001210 <_temp_sync_init>:

/**
 * \brief              Initialize Temperature Sensor
 */
int32_t _temp_sync_init(struct _temp_sync_device *const dev, void *const hw)
{
    1210:	b570      	push	{r4, r5, r6, lr}
    1212:	0005      	movs	r5, r0
    1214:	000c      	movs	r4, r1
	};
}

static inline bool hri_tsens_is_syncing(const void *const hw, hri_tsens_syncbusy_reg_t reg)
{
	return ((Tsens *)hw)->SYNCBUSY.reg & reg;
    1216:	688b      	ldr	r3, [r1, #8]
 *
 * \param[in] dev      The pointer to device instance
 */
static inline int32_t _temp_init_calibration(void *const hw)
{
	if (!hri_tsens_is_syncing(hw, TSENS_SYNCBUSY_SWRST)) {
    1218:	07db      	lsls	r3, r3, #31
    121a:	d52d      	bpl.n	1278 <_temp_sync_init+0x68>
	while (((Tsens *)hw)->SYNCBUSY.reg & reg) {
    121c:	2201      	movs	r2, #1
    121e:	68a3      	ldr	r3, [r4, #8]
    1220:	421a      	tst	r2, r3
    1222:	d1fc      	bne.n	121e <_temp_sync_init+0xe>
		}
		hri_tsens_write_CTRLA_reg(hw, TSENS_CTRLA_SWRST);
	}
	hri_tsens_wait_for_sync(hw, TSENS_SYNCBUSY_SWRST);

	hri_tsens_write_CAL_reg(hw, TSENS_CAL_TCAL(CONF_TSENS_CAL_TCAL) | TSENS_CAL_FCAL(CONF_TSENS_CAL_FCAL));
    1224:	4921      	ldr	r1, [pc, #132]	; (12ac <_temp_sync_init+0x9c>)
    1226:	680b      	ldr	r3, [r1, #0]
    1228:	021a      	lsls	r2, r3, #8
    122a:	20fc      	movs	r0, #252	; 0xfc
    122c:	0180      	lsls	r0, r0, #6
    122e:	4002      	ands	r2, r0
    1230:	051b      	lsls	r3, r3, #20
    1232:	0e9b      	lsrs	r3, r3, #26
    1234:	4313      	orrs	r3, r2
}

static inline void hri_tsens_write_CAL_reg(const void *const hw, hri_tsens_cal_reg_t data)
{
	TSENS_CRITICAL_SECTION_ENTER();
	((Tsens *)hw)->CAL.reg = data;
    1236:	6223      	str	r3, [r4, #32]
	hri_tsens_write_GAIN_reg(hw, CONF_TSENS_CAL_GAIN);
    1238:	4e1d      	ldr	r6, [pc, #116]	; (12b0 <_temp_sync_init+0xa0>)
    123a:	6833      	ldr	r3, [r6, #0]
    123c:	0518      	lsls	r0, r3, #20
    123e:	23f0      	movs	r3, #240	; 0xf0
    1240:	041b      	lsls	r3, r3, #16
    1242:	4018      	ands	r0, r3
    1244:	680b      	ldr	r3, [r1, #0]
    1246:	0b1b      	lsrs	r3, r3, #12
    1248:	4318      	orrs	r0, r3
    124a:	4b1a      	ldr	r3, [pc, #104]	; (12b4 <_temp_sync_init+0xa4>)
    124c:	4798      	blx	r3
    124e:	491a      	ldr	r1, [pc, #104]	; (12b8 <_temp_sync_init+0xa8>)
    1250:	4b1a      	ldr	r3, [pc, #104]	; (12bc <_temp_sync_init+0xac>)
    1252:	4798      	blx	r3
    1254:	4b1a      	ldr	r3, [pc, #104]	; (12c0 <_temp_sync_init+0xb0>)
    1256:	4798      	blx	r3
	((Tsens *)hw)->GAIN.reg = data;
    1258:	61a0      	str	r0, [r4, #24]
	hri_tsens_write_OFFSET_reg(hw, CONF_TSENS_CAL_OFFSET);
    125a:	6833      	ldr	r3, [r6, #0]
    125c:	011b      	lsls	r3, r3, #4
    125e:	0a1b      	lsrs	r3, r3, #8
	((Tsens *)hw)->OFFSET.reg = data;
    1260:	61e3      	str	r3, [r4, #28]
	dev->hw = hw;
    1262:	602c      	str	r4, [r5, #0]
	((Tsens *)hw)->CTRLA.reg = data;
    1264:	2300      	movs	r3, #0
    1266:	7023      	strb	r3, [r4, #0]
	while (((Tsens *)hw)->SYNCBUSY.reg & reg) {
    1268:	2203      	movs	r2, #3
    126a:	68a3      	ldr	r3, [r4, #8]
    126c:	421a      	tst	r2, r3
    126e:	d1fc      	bne.n	126a <_temp_sync_init+0x5a>
	((Tsens *)hw)->CTRLC.reg = data;
    1270:	2300      	movs	r3, #0
    1272:	70a3      	strb	r3, [r4, #2]
}
    1274:	2000      	movs	r0, #0
    1276:	bd70      	pop	{r4, r5, r6, pc}
	while (((Tsens *)hw)->SYNCBUSY.reg & reg) {
    1278:	2203      	movs	r2, #3
    127a:	68a3      	ldr	r3, [r4, #8]
    127c:	421a      	tst	r2, r3
    127e:	d1fc      	bne.n	127a <_temp_sync_init+0x6a>
	tmp = ((Tsens *)hw)->CTRLA.reg;
    1280:	7823      	ldrb	r3, [r4, #0]
		if (hri_tsens_get_CTRLA_reg(hw, TSENS_CTRLA_ENABLE)) {
    1282:	079b      	lsls	r3, r3, #30
    1284:	d50b      	bpl.n	129e <_temp_sync_init+0x8e>
	((Tsens *)hw)->CTRLA.reg &= ~TSENS_CTRLA_ENABLE;
    1286:	7823      	ldrb	r3, [r4, #0]
    1288:	2202      	movs	r2, #2
    128a:	4393      	bics	r3, r2
    128c:	7023      	strb	r3, [r4, #0]
	while (((Tsens *)hw)->SYNCBUSY.reg & reg) {
    128e:	3201      	adds	r2, #1
    1290:	68a3      	ldr	r3, [r4, #8]
    1292:	421a      	tst	r2, r3
    1294:	d1fc      	bne.n	1290 <_temp_sync_init+0x80>
    1296:	2202      	movs	r2, #2
    1298:	68a3      	ldr	r3, [r4, #8]
    129a:	421a      	tst	r2, r3
    129c:	d1fc      	bne.n	1298 <_temp_sync_init+0x88>
	((Tsens *)hw)->CTRLA.reg = data;
    129e:	2301      	movs	r3, #1
    12a0:	7023      	strb	r3, [r4, #0]
	while (((Tsens *)hw)->SYNCBUSY.reg & reg) {
    12a2:	2203      	movs	r2, #3
    12a4:	68a3      	ldr	r3, [r4, #8]
    12a6:	421a      	tst	r2, r3
    12a8:	d1fc      	bne.n	12a4 <_temp_sync_init+0x94>
    12aa:	e7b7      	b.n	121c <_temp_sync_init+0xc>
    12ac:	00806030 	.word	0x00806030
    12b0:	00806034 	.word	0x00806034
    12b4:	00001bf9 	.word	0x00001bf9
    12b8:	3caaaaab 	.word	0x3caaaaab
    12bc:	00001641 	.word	0x00001641
    12c0:	000015d5 	.word	0x000015d5

000012c4 <_temp_sync_enable>:
	_temp_enable(dev->hw);
    12c4:	6802      	ldr	r2, [r0, #0]
	((Tsens *)hw)->CTRLA.reg |= TSENS_CTRLA_ENABLE;
    12c6:	7813      	ldrb	r3, [r2, #0]
    12c8:	2102      	movs	r1, #2
    12ca:	430b      	orrs	r3, r1
    12cc:	7013      	strb	r3, [r2, #0]
	while (((Tsens *)hw)->SYNCBUSY.reg & reg) {
    12ce:	3101      	adds	r1, #1
    12d0:	6893      	ldr	r3, [r2, #8]
    12d2:	4219      	tst	r1, r3
    12d4:	d1fc      	bne.n	12d0 <_temp_sync_enable+0xc>
}
    12d6:	2000      	movs	r0, #0
    12d8:	4770      	bx	lr

000012da <_temp_sync_read>:
{
    12da:	b530      	push	{r4, r5, lr}
	hri_tsens_wait_for_sync(dev->hw, TSENS_SYNCBUSY_ENABLE);
    12dc:	6802      	ldr	r2, [r0, #0]
    12de:	2402      	movs	r4, #2
    12e0:	6893      	ldr	r3, [r2, #8]
    12e2:	421c      	tst	r4, r3
    12e4:	d1fc      	bne.n	12e0 <_temp_sync_read+0x6>
}

static inline void hri_tsens_write_CTRLB_reg(const void *const hw, hri_tsens_ctrlb_reg_t data)
{
	TSENS_CRITICAL_SECTION_ENTER();
	((Tsens *)hw)->CTRLB.reg = data;
    12e6:	2301      	movs	r3, #1
    12e8:	7053      	strb	r3, [r2, #1]
	while (!hri_tsens_get_interrupt_RESRDY_bit(dev->hw)) {
    12ea:	6803      	ldr	r3, [r0, #0]
    12ec:	2401      	movs	r4, #1
		if (hri_tsens_get_interrupt_OVF_bit(dev->hw)) {
    12ee:	2508      	movs	r5, #8
	return (((Tsens *)hw)->INTFLAG.reg & TSENS_INTFLAG_RESRDY) >> TSENS_INTFLAG_RESRDY_Pos;
    12f0:	799a      	ldrb	r2, [r3, #6]
	while (!hri_tsens_get_interrupt_RESRDY_bit(dev->hw)) {
    12f2:	4222      	tst	r2, r4
    12f4:	d107      	bne.n	1306 <_temp_sync_read+0x2c>
	return (((Tsens *)hw)->INTFLAG.reg & TSENS_INTFLAG_OVF) >> TSENS_INTFLAG_OVF_Pos;
    12f6:	799a      	ldrb	r2, [r3, #6]
		if (hri_tsens_get_interrupt_OVF_bit(dev->hw)) {
    12f8:	422a      	tst	r2, r5
    12fa:	d0f9      	beq.n	12f0 <_temp_sync_read+0x16>
	((Tsens *)hw)->INTFLAG.reg = TSENS_INTFLAG_OVF;
    12fc:	2208      	movs	r2, #8
    12fe:	719a      	strb	r2, [r3, #6]
			return ERR_OVERFLOW;
    1300:	2013      	movs	r0, #19
    1302:	4240      	negs	r0, r0
    1304:	e009      	b.n	131a <_temp_sync_read+0x40>
	return (((Tsens *)hw)->VALUE.reg & TSENS_VALUE_VALUE_Msk) >> TSENS_VALUE_VALUE_Pos;
    1306:	68db      	ldr	r3, [r3, #12]
    1308:	021b      	lsls	r3, r3, #8
static inline void _tsens_read_temp(void *hw, int32_t *temp)
{
	*temp = hri_tsens_read_VALUE_VALUE_bf(hw);

	/* Convert temp to int32, since VALUE from register is 24 bits singed */
	if (*temp & 0x00800000) {
    130a:	0a1a      	lsrs	r2, r3, #8
    130c:	2b00      	cmp	r3, #0
    130e:	db05      	blt.n	131c <_temp_sync_read+0x42>
	*temp = hri_tsens_read_VALUE_VALUE_bf(hw);
    1310:	600a      	str	r2, [r1, #0]
	hri_tsens_clear_interrupt_RESRDY_bit(dev->hw);
    1312:	6803      	ldr	r3, [r0, #0]
	((Tsens *)hw)->INTFLAG.reg = TSENS_INTFLAG_RESRDY;
    1314:	2201      	movs	r2, #1
    1316:	719a      	strb	r2, [r3, #6]
	return ERR_NONE;
    1318:	2000      	movs	r0, #0
}
    131a:	bd30      	pop	{r4, r5, pc}
		*temp |= ~TSENS_VALUE_MASK;
    131c:	23ff      	movs	r3, #255	; 0xff
    131e:	061b      	lsls	r3, r3, #24
    1320:	431a      	orrs	r2, r3
    1322:	600a      	str	r2, [r1, #0]
    1324:	e7f5      	b.n	1312 <_temp_sync_read+0x38>
	...

00001328 <print_adc_voltage>:
#define ADC_CH_12V_VMON			0x09	// PA09 - AIN9
#define ADC_CH_5V_IMON			0x0A	// PA10 - AIN10
#define ADC_CH_12V_IMON			0x0B	// PA11 - AIN11

void print_adc_voltage(uint8_t channel, int numerator, int demoninator, char unit)
{
    1328:	b5f0      	push	{r4, r5, r6, r7, lr}
    132a:	46d6      	mov	lr, sl
    132c:	b500      	push	{lr}
    132e:	b088      	sub	sp, #32
    1330:	9004      	str	r0, [sp, #16]
    1332:	000e      	movs	r6, r1
    1334:	0015      	movs	r5, r2
    1336:	469a      	mov	sl, r3
    1338:	4b20      	ldr	r3, [pc, #128]	; (13bc <print_adc_voltage+0x94>)
    133a:	3b01      	subs	r3, #1

#define TICKS_PER_MILLISECOND 12000

static inline void WAIT_APPROX_MILLIS(unsigned long millis)
{
	for(int i =0; i < (millis * TICKS_PER_MILLISECOND); i++);
    133c:	2b00      	cmp	r3, #0
    133e:	d1fc      	bne.n	133a <print_adc_voltage+0x12>
		uint8_t buffer[2];
		WAIT_APPROX_MILLIS(10);
		_adc_sync_set_inputs(&ADC_0, channel, 0x18, 0);
    1340:	4c1f      	ldr	r4, [pc, #124]	; (13c0 <print_adc_voltage+0x98>)
    1342:	2218      	movs	r2, #24
    1344:	9904      	ldr	r1, [sp, #16]
    1346:	0020      	movs	r0, r4
    1348:	4f1e      	ldr	r7, [pc, #120]	; (13c4 <print_adc_voltage+0x9c>)
    134a:	47b8      	blx	r7
		adc_sync_enable_channel(&ADC_0, 0);
    134c:	2100      	movs	r1, #0
    134e:	0020      	movs	r0, r4
    1350:	4b1d      	ldr	r3, [pc, #116]	; (13c8 <print_adc_voltage+0xa0>)
    1352:	4798      	blx	r3
		adc_sync_read_channel(&ADC_0, 0, buffer, 2);
    1354:	af07      	add	r7, sp, #28
    1356:	2302      	movs	r3, #2
    1358:	003a      	movs	r2, r7
    135a:	2100      	movs	r1, #0
    135c:	0020      	movs	r0, r4
    135e:	4c1b      	ldr	r4, [pc, #108]	; (13cc <print_adc_voltage+0xa4>)
    1360:	47a0      	blx	r4
		//adc_sync_disable_channel(&ADC_0, channel);
		unsigned int val = (buffer[1]<<8)+(buffer[0]);
    1362:	787c      	ldrb	r4, [r7, #1]
    1364:	0224      	lsls	r4, r4, #8
    1366:	783b      	ldrb	r3, [r7, #0]
    1368:	18e4      	adds	r4, r4, r3
		unsigned int voltage_uV = val*(ADC_REF_VOLTAGE*adc_pres/ADC_RESOLUTION);
    136a:	0020      	movs	r0, r4
    136c:	4b18      	ldr	r3, [pc, #96]	; (13d0 <print_adc_voltage+0xa8>)
    136e:	4798      	blx	r3
    1370:	2200      	movs	r2, #0
    1372:	4b18      	ldr	r3, [pc, #96]	; (13d4 <print_adc_voltage+0xac>)
    1374:	4f18      	ldr	r7, [pc, #96]	; (13d8 <print_adc_voltage+0xb0>)
    1376:	47b8      	blx	r7
    1378:	4b18      	ldr	r3, [pc, #96]	; (13dc <print_adc_voltage+0xb4>)
    137a:	4798      	blx	r3
    137c:	0007      	movs	r7, r0
		unsigned int votlage_converted = voltage_uV*numerator/demoninator;
    137e:	0030      	movs	r0, r6
    1380:	4378      	muls	r0, r7
    1382:	4e17      	ldr	r6, [pc, #92]	; (13e0 <print_adc_voltage+0xb8>)
    1384:	0029      	movs	r1, r5
    1386:	47b0      	blx	r6
		printf("ADC CH %u: %u, %u, %u.%u %c\r\n", channel, val, voltage_uV, (unsigned int)(votlage_converted/adc_pres),(unsigned int)(votlage_converted/1000-(adc_pres/1000)*(votlage_converted/adc_pres)), unit);
    1388:	4916      	ldr	r1, [pc, #88]	; (13e4 <print_adc_voltage+0xbc>)
    138a:	9005      	str	r0, [sp, #20]
    138c:	47b0      	blx	r6
    138e:	0005      	movs	r5, r0
    1390:	4653      	mov	r3, sl
    1392:	9302      	str	r3, [sp, #8]
    1394:	21fa      	movs	r1, #250	; 0xfa
    1396:	0089      	lsls	r1, r1, #2
    1398:	9805      	ldr	r0, [sp, #20]
    139a:	47b0      	blx	r6
    139c:	23fa      	movs	r3, #250	; 0xfa
    139e:	009b      	lsls	r3, r3, #2
    13a0:	436b      	muls	r3, r5
    13a2:	1ac0      	subs	r0, r0, r3
    13a4:	9001      	str	r0, [sp, #4]
    13a6:	9500      	str	r5, [sp, #0]
    13a8:	003b      	movs	r3, r7
    13aa:	0022      	movs	r2, r4
    13ac:	9904      	ldr	r1, [sp, #16]
    13ae:	480e      	ldr	r0, [pc, #56]	; (13e8 <print_adc_voltage+0xc0>)
    13b0:	4c0e      	ldr	r4, [pc, #56]	; (13ec <print_adc_voltage+0xc4>)
    13b2:	47a0      	blx	r4
}
    13b4:	b008      	add	sp, #32
    13b6:	bc04      	pop	{r2}
    13b8:	4692      	mov	sl, r2
    13ba:	bdf0      	pop	{r4, r5, r6, r7, pc}
    13bc:	0001d4c0 	.word	0x0001d4c0
    13c0:	200000fc 	.word	0x200000fc
    13c4:	00000dad 	.word	0x00000dad
    13c8:	00000795 	.word	0x00000795
    13cc:	000007c1 	.word	0x000007c1
    13d0:	00002819 	.word	0x00002819
    13d4:	403f4000 	.word	0x403f4000
    13d8:	00001c85 	.word	0x00001c85
    13dc:	00001605 	.word	0x00001605
    13e0:	00000fc3 	.word	0x00000fc3
    13e4:	000f4240 	.word	0x000f4240
    13e8:	00003ee8 	.word	0x00003ee8
    13ec:	00002d5d 	.word	0x00002d5d

000013f0 <main>:

int main(void)
{
    13f0:	b5f0      	push	{r4, r5, r6, r7, lr}
    13f2:	b083      	sub	sp, #12
	unsigned int loop_count = 0;
	/* Initializes MCU, drivers and middleware */
	atmel_start_init();
    13f4:	4b31      	ldr	r3, [pc, #196]	; (14bc <main+0xcc>)
    13f6:	4798      	blx	r3
		
	printf("init done\r\n");
    13f8:	4831      	ldr	r0, [pc, #196]	; (14c0 <main+0xd0>)
    13fa:	4b32      	ldr	r3, [pc, #200]	; (14c4 <main+0xd4>)
    13fc:	4798      	blx	r3
	printf("adc res: %i, %i\r\n",CONF_ADC_0_RESSEL,ADC_RESOLUTION);
    13fe:	2280      	movs	r2, #128	; 0x80
    1400:	0252      	lsls	r2, r2, #9
    1402:	2101      	movs	r1, #1
    1404:	4830      	ldr	r0, [pc, #192]	; (14c8 <main+0xd8>)
    1406:	4b31      	ldr	r3, [pc, #196]	; (14cc <main+0xdc>)
    1408:	4798      	blx	r3
    140a:	4b31      	ldr	r3, [pc, #196]	; (14d0 <main+0xe0>)
    140c:	3b01      	subs	r3, #1
    140e:	2b00      	cmp	r3, #0
    1410:	d1fc      	bne.n	140c <main+0x1c>
	WAIT_APPROX_MILLIS(100);
	int32_t temp;
	temp_sync_enable(&TEMPERATURE_SENSOR_0);
    1412:	4830      	ldr	r0, [pc, #192]	; (14d4 <main+0xe4>)
    1414:	4b30      	ldr	r3, [pc, #192]	; (14d8 <main+0xe8>)
    1416:	4798      	blx	r3
	unsigned int loop_count = 0;
    1418:	2600      	movs	r6, #0
		if(loop_count>0) {
			gpio_set_pin_level(EN_5V, 1);
			gpio_set_pin_level(EN_12V, 1);
		}
		
		print_adc_voltage(ADC_CH_VBAT_VMON, 250, 10, 'V');
    141a:	4c30      	ldr	r4, [pc, #192]	; (14dc <main+0xec>)
		print_adc_voltage(ADC_CH_5V_VMON, 56, 20, 'V');
		print_adc_voltage(ADC_CH_5V_IMON, 2000, 1, 'm');
		print_adc_voltage(ADC_CH_12V_INT_VMON, 130, 20, 'V');
		print_adc_voltage(ADC_CH_12V_VMON, 130, 20, 'V');
		print_adc_voltage(ADC_CH_12V_IMON, 2000, 1, 'm');
		temp_sync_read(&TEMPERATURE_SENSOR_0, &temp);
    141c:	4d30      	ldr	r5, [pc, #192]	; (14e0 <main+0xf0>)
    141e:	e00a      	b.n	1436 <main+0x46>
		printf("temp: %ul\r\n", temp);
		
		WAIT_APPROX_MILLIS(1000);
		printf("end loop %u\r\n",loop_count);
		WAIT_APPROX_MILLIS(100);
		loop_count++;
    1420:	3601      	adds	r6, #1
		if(loop_count>0) {
    1422:	2e00      	cmp	r6, #0
    1424:	d007      	beq.n	1436 <main+0x46>
	((Port *)hw)->Group[submodule_index].OUTSET.reg = mask;
    1426:	23c0      	movs	r3, #192	; 0xc0
    1428:	05db      	lsls	r3, r3, #23
    142a:	2280      	movs	r2, #128	; 0x80
    142c:	0412      	lsls	r2, r2, #16
    142e:	619a      	str	r2, [r3, #24]
    1430:	2280      	movs	r2, #128	; 0x80
    1432:	0392      	lsls	r2, r2, #14
    1434:	619a      	str	r2, [r3, #24]
		print_adc_voltage(ADC_CH_VBAT_VMON, 250, 10, 'V');
    1436:	2356      	movs	r3, #86	; 0x56
    1438:	220a      	movs	r2, #10
    143a:	21fa      	movs	r1, #250	; 0xfa
    143c:	2000      	movs	r0, #0
    143e:	47a0      	blx	r4
		print_adc_voltage(ADC_CH_5V_BT_INT_VMON, 56, 20, 'V');
    1440:	2356      	movs	r3, #86	; 0x56
    1442:	2214      	movs	r2, #20
    1444:	2138      	movs	r1, #56	; 0x38
    1446:	2007      	movs	r0, #7
    1448:	47a0      	blx	r4
		print_adc_voltage(ADC_CH_5V_BT_VMON, 56, 20, 'V');
    144a:	2356      	movs	r3, #86	; 0x56
    144c:	2214      	movs	r2, #20
    144e:	2138      	movs	r1, #56	; 0x38
    1450:	2005      	movs	r0, #5
    1452:	47a0      	blx	r4
		print_adc_voltage(ADC_CH_5V_INT_VMON, 56, 20, 'V');
    1454:	2356      	movs	r3, #86	; 0x56
    1456:	2214      	movs	r2, #20
    1458:	2138      	movs	r1, #56	; 0x38
    145a:	2008      	movs	r0, #8
    145c:	47a0      	blx	r4
		print_adc_voltage(ADC_CH_5V_VMON, 56, 20, 'V');
    145e:	2356      	movs	r3, #86	; 0x56
    1460:	2214      	movs	r2, #20
    1462:	2138      	movs	r1, #56	; 0x38
    1464:	2006      	movs	r0, #6
    1466:	47a0      	blx	r4
		print_adc_voltage(ADC_CH_5V_IMON, 2000, 1, 'm');
    1468:	27fa      	movs	r7, #250	; 0xfa
    146a:	00ff      	lsls	r7, r7, #3
    146c:	236d      	movs	r3, #109	; 0x6d
    146e:	2201      	movs	r2, #1
    1470:	0039      	movs	r1, r7
    1472:	200a      	movs	r0, #10
    1474:	47a0      	blx	r4
		print_adc_voltage(ADC_CH_12V_INT_VMON, 130, 20, 'V');
    1476:	2356      	movs	r3, #86	; 0x56
    1478:	2214      	movs	r2, #20
    147a:	2182      	movs	r1, #130	; 0x82
    147c:	2004      	movs	r0, #4
    147e:	47a0      	blx	r4
		print_adc_voltage(ADC_CH_12V_VMON, 130, 20, 'V');
    1480:	2356      	movs	r3, #86	; 0x56
    1482:	2214      	movs	r2, #20
    1484:	2182      	movs	r1, #130	; 0x82
    1486:	2009      	movs	r0, #9
    1488:	47a0      	blx	r4
		print_adc_voltage(ADC_CH_12V_IMON, 2000, 1, 'm');
    148a:	236d      	movs	r3, #109	; 0x6d
    148c:	2201      	movs	r2, #1
    148e:	0039      	movs	r1, r7
    1490:	200b      	movs	r0, #11
    1492:	47a0      	blx	r4
		temp_sync_read(&TEMPERATURE_SENSOR_0, &temp);
    1494:	a901      	add	r1, sp, #4
    1496:	480f      	ldr	r0, [pc, #60]	; (14d4 <main+0xe4>)
    1498:	47a8      	blx	r5
		printf("temp: %ul\r\n", temp);
    149a:	9901      	ldr	r1, [sp, #4]
    149c:	4811      	ldr	r0, [pc, #68]	; (14e4 <main+0xf4>)
    149e:	4b0b      	ldr	r3, [pc, #44]	; (14cc <main+0xdc>)
    14a0:	4798      	blx	r3
    14a2:	4b11      	ldr	r3, [pc, #68]	; (14e8 <main+0xf8>)
    14a4:	3b01      	subs	r3, #1
    14a6:	2b00      	cmp	r3, #0
    14a8:	d1fc      	bne.n	14a4 <main+0xb4>
		printf("end loop %u\r\n",loop_count);
    14aa:	0031      	movs	r1, r6
    14ac:	480f      	ldr	r0, [pc, #60]	; (14ec <main+0xfc>)
    14ae:	4b07      	ldr	r3, [pc, #28]	; (14cc <main+0xdc>)
    14b0:	4798      	blx	r3
    14b2:	4b07      	ldr	r3, [pc, #28]	; (14d0 <main+0xe0>)
    14b4:	3b01      	subs	r3, #1
    14b6:	2b00      	cmp	r3, #0
    14b8:	d1fc      	bne.n	14b4 <main+0xc4>
    14ba:	e7b1      	b.n	1420 <main+0x30>
    14bc:	0000011d 	.word	0x0000011d
    14c0:	00003f08 	.word	0x00003f08
    14c4:	00002e51 	.word	0x00002e51
    14c8:	00003f14 	.word	0x00003f14
    14cc:	00002d5d 	.word	0x00002d5d
    14d0:	00124f80 	.word	0x00124f80
    14d4:	200000f8 	.word	0x200000f8
    14d8:	00000991 	.word	0x00000991
    14dc:	00001329 	.word	0x00001329
    14e0:	000009b9 	.word	0x000009b9
    14e4:	00003f28 	.word	0x00003f28
    14e8:	00b71b00 	.word	0x00b71b00
    14ec:	00003f34 	.word	0x00003f34

000014f0 <_read>:
#include <stdio.h>

int __attribute__((weak)) _read(int file, char *ptr, int len); /* Remove GCC compiler warning */

int __attribute__((weak)) _read(int file, char *ptr, int len)
{
    14f0:	b510      	push	{r4, lr}
    14f2:	000b      	movs	r3, r1
	int n = 0;

	if (file != 0) {
    14f4:	2800      	cmp	r0, #0
    14f6:	d109      	bne.n	150c <_read+0x1c>
		return -1;
	}

	n = stdio_io_read((uint8_t *)ptr, len);
    14f8:	0011      	movs	r1, r2
    14fa:	0018      	movs	r0, r3
    14fc:	4b05      	ldr	r3, [pc, #20]	; (1514 <_read+0x24>)
    14fe:	4798      	blx	r3
    1500:	2800      	cmp	r0, #0
    1502:	db00      	blt.n	1506 <_read+0x16>
	if (n < 0) {
		return -1;
	}

	return n;
}
    1504:	bd10      	pop	{r4, pc}
    1506:	2001      	movs	r0, #1
    1508:	4240      	negs	r0, r0
    150a:	e7fb      	b.n	1504 <_read+0x14>
		return -1;
    150c:	2001      	movs	r0, #1
    150e:	4240      	negs	r0, r0
    1510:	e7f8      	b.n	1504 <_read+0x14>
    1512:	46c0      	nop			; (mov r8, r8)
    1514:	0000156d 	.word	0x0000156d

00001518 <_write>:
#include <stdio.h>

int __attribute__((weak)) _write(int file, char *ptr, int len); /* Remove GCC compiler warning */

int __attribute__((weak)) _write(int file, char *ptr, int len)
{
    1518:	b510      	push	{r4, lr}
    151a:	000b      	movs	r3, r1
	int n = 0;

	if ((file != 1) && (file != 2) && (file != 3)) {
    151c:	3801      	subs	r0, #1
    151e:	2802      	cmp	r0, #2
    1520:	d809      	bhi.n	1536 <_write+0x1e>
		return -1;
	}

	n = stdio_io_write((const uint8_t *)ptr, len);
    1522:	0011      	movs	r1, r2
    1524:	0018      	movs	r0, r3
    1526:	4b05      	ldr	r3, [pc, #20]	; (153c <_write+0x24>)
    1528:	4798      	blx	r3
    152a:	2800      	cmp	r0, #0
    152c:	db00      	blt.n	1530 <_write+0x18>
	if (n < 0) {
		return -1;
	}

	return n;
}
    152e:	bd10      	pop	{r4, pc}
    1530:	2001      	movs	r0, #1
    1532:	4240      	negs	r0, r0
    1534:	e7fb      	b.n	152e <_write+0x16>
		return -1;
    1536:	2001      	movs	r0, #1
    1538:	4240      	negs	r0, r0
    153a:	e7f8      	b.n	152e <_write+0x16>
    153c:	00001591 	.word	0x00001591

00001540 <stdio_io_init>:

/** IO descriptor for STDIO access. */
static struct io_descriptor *stdio_io = NULL;

void stdio_io_init(struct io_descriptor *io)
{
    1540:	b570      	push	{r4, r5, r6, lr}
    1542:	0006      	movs	r6, r0
#if defined(__GNUC__)
	/* Specify that stdout and stdin should not be buffered. */
	setbuf(stdout, NULL);
    1544:	4d06      	ldr	r5, [pc, #24]	; (1560 <stdio_io_init+0x20>)
    1546:	682b      	ldr	r3, [r5, #0]
    1548:	6898      	ldr	r0, [r3, #8]
    154a:	2100      	movs	r1, #0
    154c:	4c05      	ldr	r4, [pc, #20]	; (1564 <stdio_io_init+0x24>)
    154e:	47a0      	blx	r4
	setbuf(stdin, NULL);
    1550:	682b      	ldr	r3, [r5, #0]
    1552:	6858      	ldr	r0, [r3, #4]
    1554:	2100      	movs	r1, #0
    1556:	47a0      	blx	r4
	 * and AVR GCC library:
	 * - printf() emits one character at a time.
	 * - getchar() requests only 1 byte to exit.
	 */
#endif
	stdio_io = io;
    1558:	4b03      	ldr	r3, [pc, #12]	; (1568 <stdio_io_init+0x28>)
    155a:	601e      	str	r6, [r3, #0]
}
    155c:	bd70      	pop	{r4, r5, r6, pc}
    155e:	46c0      	nop			; (mov r8, r8)
    1560:	20000014 	.word	0x20000014
    1564:	00002e65 	.word	0x00002e65
    1568:	200000c4 	.word	0x200000c4

0000156c <stdio_io_read>:
{
	stdio_io = io;
}

int32_t stdio_io_read(uint8_t *buf, const int32_t len)
{
    156c:	b510      	push	{r4, lr}
    156e:	0004      	movs	r4, r0
	if (stdio_io == NULL) {
    1570:	4b05      	ldr	r3, [pc, #20]	; (1588 <stdio_io_read+0x1c>)
    1572:	6818      	ldr	r0, [r3, #0]
    1574:	2800      	cmp	r0, #0
    1576:	d004      	beq.n	1582 <stdio_io_read+0x16>
		return 0;
	}
	return io_read(stdio_io, buf, len);
    1578:	b28a      	uxth	r2, r1
    157a:	0021      	movs	r1, r4
    157c:	4b03      	ldr	r3, [pc, #12]	; (158c <stdio_io_read+0x20>)
    157e:	4798      	blx	r3
}
    1580:	bd10      	pop	{r4, pc}
		return 0;
    1582:	2000      	movs	r0, #0
    1584:	e7fc      	b.n	1580 <stdio_io_read+0x14>
    1586:	46c0      	nop			; (mov r8, r8)
    1588:	200000c4 	.word	0x200000c4
    158c:	00000929 	.word	0x00000929

00001590 <stdio_io_write>:

int32_t stdio_io_write(const uint8_t *buf, const int32_t len)
{
    1590:	b510      	push	{r4, lr}
    1592:	0004      	movs	r4, r0
	if (stdio_io == NULL) {
    1594:	4b05      	ldr	r3, [pc, #20]	; (15ac <stdio_io_write+0x1c>)
    1596:	6818      	ldr	r0, [r3, #0]
    1598:	2800      	cmp	r0, #0
    159a:	d004      	beq.n	15a6 <stdio_io_write+0x16>
		return 0;
	}
	return io_write(stdio_io, buf, len);
    159c:	b28a      	uxth	r2, r1
    159e:	0021      	movs	r1, r4
    15a0:	4b03      	ldr	r3, [pc, #12]	; (15b0 <stdio_io_write+0x20>)
    15a2:	4798      	blx	r3
}
    15a4:	bd10      	pop	{r4, pc}
		return 0;
    15a6:	2000      	movs	r0, #0
    15a8:	e7fc      	b.n	15a4 <stdio_io_write+0x14>
    15aa:	46c0      	nop			; (mov r8, r8)
    15ac:	200000c4 	.word	0x200000c4
    15b0:	000008f5 	.word	0x000008f5

000015b4 <stdio_redirect_init>:
	/* Print welcome message */
	printf("\r\nHello ATMEL World!\r\n");
}

void stdio_redirect_init(void)
{
    15b4:	b510      	push	{r4, lr}

	usart_sync_enable(&DEBUG_UART);
    15b6:	4c04      	ldr	r4, [pc, #16]	; (15c8 <stdio_redirect_init+0x14>)
    15b8:	0020      	movs	r0, r4
    15ba:	4b04      	ldr	r3, [pc, #16]	; (15cc <stdio_redirect_init+0x18>)
    15bc:	4798      	blx	r3
	stdio_io_init(&DEBUG_UART.io);
    15be:	0020      	movs	r0, r4
    15c0:	4b03      	ldr	r3, [pc, #12]	; (15d0 <stdio_redirect_init+0x1c>)
    15c2:	4798      	blx	r3
}
    15c4:	bd10      	pop	{r4, pc}
    15c6:	46c0      	nop			; (mov r8, r8)
    15c8:	20000100 	.word	0x20000100
    15cc:	00000b1d 	.word	0x00000b1d
    15d0:	00001541 	.word	0x00001541

000015d4 <__aeabi_f2uiz>:
    15d4:	219e      	movs	r1, #158	; 0x9e
    15d6:	b510      	push	{r4, lr}
    15d8:	05c9      	lsls	r1, r1, #23
    15da:	1c04      	adds	r4, r0, #0
    15dc:	f001 f9c2 	bl	2964 <__aeabi_fcmpge>
    15e0:	2800      	cmp	r0, #0
    15e2:	d103      	bne.n	15ec <__aeabi_f2uiz+0x18>
    15e4:	1c20      	adds	r0, r4, #0
    15e6:	f000 fae7 	bl	1bb8 <__aeabi_f2iz>
    15ea:	bd10      	pop	{r4, pc}
    15ec:	219e      	movs	r1, #158	; 0x9e
    15ee:	1c20      	adds	r0, r4, #0
    15f0:	05c9      	lsls	r1, r1, #23
    15f2:	f000 f945 	bl	1880 <__aeabi_fsub>
    15f6:	f000 fadf 	bl	1bb8 <__aeabi_f2iz>
    15fa:	2380      	movs	r3, #128	; 0x80
    15fc:	061b      	lsls	r3, r3, #24
    15fe:	469c      	mov	ip, r3
    1600:	4460      	add	r0, ip
    1602:	e7f2      	b.n	15ea <__aeabi_f2uiz+0x16>

00001604 <__aeabi_d2uiz>:
    1604:	b570      	push	{r4, r5, r6, lr}
    1606:	2200      	movs	r2, #0
    1608:	4b0c      	ldr	r3, [pc, #48]	; (163c <__aeabi_d2uiz+0x38>)
    160a:	0004      	movs	r4, r0
    160c:	000d      	movs	r5, r1
    160e:	f001 f96f 	bl	28f0 <__aeabi_dcmpge>
    1612:	2800      	cmp	r0, #0
    1614:	d104      	bne.n	1620 <__aeabi_d2uiz+0x1c>
    1616:	0020      	movs	r0, r4
    1618:	0029      	movs	r1, r5
    161a:	f001 f8c9 	bl	27b0 <__aeabi_d2iz>
    161e:	bd70      	pop	{r4, r5, r6, pc}
    1620:	4b06      	ldr	r3, [pc, #24]	; (163c <__aeabi_d2uiz+0x38>)
    1622:	2200      	movs	r2, #0
    1624:	0020      	movs	r0, r4
    1626:	0029      	movs	r1, r5
    1628:	f000 fdac 	bl	2184 <__aeabi_dsub>
    162c:	f001 f8c0 	bl	27b0 <__aeabi_d2iz>
    1630:	2380      	movs	r3, #128	; 0x80
    1632:	061b      	lsls	r3, r3, #24
    1634:	469c      	mov	ip, r3
    1636:	4460      	add	r0, ip
    1638:	e7f1      	b.n	161e <__aeabi_d2uiz+0x1a>
    163a:	46c0      	nop			; (mov r8, r8)
    163c:	41e00000 	.word	0x41e00000

00001640 <__aeabi_fmul>:
    1640:	b5f8      	push	{r3, r4, r5, r6, r7, lr}
    1642:	4657      	mov	r7, sl
    1644:	464e      	mov	r6, r9
    1646:	4645      	mov	r5, r8
    1648:	46de      	mov	lr, fp
    164a:	b5e0      	push	{r5, r6, r7, lr}
    164c:	0247      	lsls	r7, r0, #9
    164e:	0046      	lsls	r6, r0, #1
    1650:	4688      	mov	r8, r1
    1652:	0a7f      	lsrs	r7, r7, #9
    1654:	0e36      	lsrs	r6, r6, #24
    1656:	0fc4      	lsrs	r4, r0, #31
    1658:	2e00      	cmp	r6, #0
    165a:	d047      	beq.n	16ec <__aeabi_fmul+0xac>
    165c:	2eff      	cmp	r6, #255	; 0xff
    165e:	d024      	beq.n	16aa <__aeabi_fmul+0x6a>
    1660:	00fb      	lsls	r3, r7, #3
    1662:	2780      	movs	r7, #128	; 0x80
    1664:	04ff      	lsls	r7, r7, #19
    1666:	431f      	orrs	r7, r3
    1668:	2300      	movs	r3, #0
    166a:	4699      	mov	r9, r3
    166c:	469a      	mov	sl, r3
    166e:	3e7f      	subs	r6, #127	; 0x7f
    1670:	4643      	mov	r3, r8
    1672:	025d      	lsls	r5, r3, #9
    1674:	0058      	lsls	r0, r3, #1
    1676:	0fdb      	lsrs	r3, r3, #31
    1678:	0a6d      	lsrs	r5, r5, #9
    167a:	0e00      	lsrs	r0, r0, #24
    167c:	4698      	mov	r8, r3
    167e:	d043      	beq.n	1708 <__aeabi_fmul+0xc8>
    1680:	28ff      	cmp	r0, #255	; 0xff
    1682:	d03b      	beq.n	16fc <__aeabi_fmul+0xbc>
    1684:	00eb      	lsls	r3, r5, #3
    1686:	2580      	movs	r5, #128	; 0x80
    1688:	2200      	movs	r2, #0
    168a:	04ed      	lsls	r5, r5, #19
    168c:	431d      	orrs	r5, r3
    168e:	387f      	subs	r0, #127	; 0x7f
    1690:	1836      	adds	r6, r6, r0
    1692:	1c73      	adds	r3, r6, #1
    1694:	4641      	mov	r1, r8
    1696:	469b      	mov	fp, r3
    1698:	464b      	mov	r3, r9
    169a:	4061      	eors	r1, r4
    169c:	4313      	orrs	r3, r2
    169e:	2b0f      	cmp	r3, #15
    16a0:	d864      	bhi.n	176c <__aeabi_fmul+0x12c>
    16a2:	4875      	ldr	r0, [pc, #468]	; (1878 <__aeabi_fmul+0x238>)
    16a4:	009b      	lsls	r3, r3, #2
    16a6:	58c3      	ldr	r3, [r0, r3]
    16a8:	469f      	mov	pc, r3
    16aa:	2f00      	cmp	r7, #0
    16ac:	d142      	bne.n	1734 <__aeabi_fmul+0xf4>
    16ae:	2308      	movs	r3, #8
    16b0:	4699      	mov	r9, r3
    16b2:	3b06      	subs	r3, #6
    16b4:	26ff      	movs	r6, #255	; 0xff
    16b6:	469a      	mov	sl, r3
    16b8:	e7da      	b.n	1670 <__aeabi_fmul+0x30>
    16ba:	4641      	mov	r1, r8
    16bc:	2a02      	cmp	r2, #2
    16be:	d028      	beq.n	1712 <__aeabi_fmul+0xd2>
    16c0:	2a03      	cmp	r2, #3
    16c2:	d100      	bne.n	16c6 <__aeabi_fmul+0x86>
    16c4:	e0ce      	b.n	1864 <__aeabi_fmul+0x224>
    16c6:	2a01      	cmp	r2, #1
    16c8:	d000      	beq.n	16cc <__aeabi_fmul+0x8c>
    16ca:	e0ac      	b.n	1826 <__aeabi_fmul+0x1e6>
    16cc:	4011      	ands	r1, r2
    16ce:	2000      	movs	r0, #0
    16d0:	2200      	movs	r2, #0
    16d2:	b2cc      	uxtb	r4, r1
    16d4:	0240      	lsls	r0, r0, #9
    16d6:	05d2      	lsls	r2, r2, #23
    16d8:	0a40      	lsrs	r0, r0, #9
    16da:	07e4      	lsls	r4, r4, #31
    16dc:	4310      	orrs	r0, r2
    16de:	4320      	orrs	r0, r4
    16e0:	bc3c      	pop	{r2, r3, r4, r5}
    16e2:	4690      	mov	r8, r2
    16e4:	4699      	mov	r9, r3
    16e6:	46a2      	mov	sl, r4
    16e8:	46ab      	mov	fp, r5
    16ea:	bdf8      	pop	{r3, r4, r5, r6, r7, pc}
    16ec:	2f00      	cmp	r7, #0
    16ee:	d115      	bne.n	171c <__aeabi_fmul+0xdc>
    16f0:	2304      	movs	r3, #4
    16f2:	4699      	mov	r9, r3
    16f4:	3b03      	subs	r3, #3
    16f6:	2600      	movs	r6, #0
    16f8:	469a      	mov	sl, r3
    16fa:	e7b9      	b.n	1670 <__aeabi_fmul+0x30>
    16fc:	20ff      	movs	r0, #255	; 0xff
    16fe:	2202      	movs	r2, #2
    1700:	2d00      	cmp	r5, #0
    1702:	d0c5      	beq.n	1690 <__aeabi_fmul+0x50>
    1704:	2203      	movs	r2, #3
    1706:	e7c3      	b.n	1690 <__aeabi_fmul+0x50>
    1708:	2d00      	cmp	r5, #0
    170a:	d119      	bne.n	1740 <__aeabi_fmul+0x100>
    170c:	2000      	movs	r0, #0
    170e:	2201      	movs	r2, #1
    1710:	e7be      	b.n	1690 <__aeabi_fmul+0x50>
    1712:	2401      	movs	r4, #1
    1714:	22ff      	movs	r2, #255	; 0xff
    1716:	400c      	ands	r4, r1
    1718:	2000      	movs	r0, #0
    171a:	e7db      	b.n	16d4 <__aeabi_fmul+0x94>
    171c:	0038      	movs	r0, r7
    171e:	f001 f92b 	bl	2978 <__clzsi2>
    1722:	2676      	movs	r6, #118	; 0x76
    1724:	1f43      	subs	r3, r0, #5
    1726:	409f      	lsls	r7, r3
    1728:	2300      	movs	r3, #0
    172a:	4276      	negs	r6, r6
    172c:	1a36      	subs	r6, r6, r0
    172e:	4699      	mov	r9, r3
    1730:	469a      	mov	sl, r3
    1732:	e79d      	b.n	1670 <__aeabi_fmul+0x30>
    1734:	230c      	movs	r3, #12
    1736:	4699      	mov	r9, r3
    1738:	3b09      	subs	r3, #9
    173a:	26ff      	movs	r6, #255	; 0xff
    173c:	469a      	mov	sl, r3
    173e:	e797      	b.n	1670 <__aeabi_fmul+0x30>
    1740:	0028      	movs	r0, r5
    1742:	f001 f919 	bl	2978 <__clzsi2>
    1746:	1f43      	subs	r3, r0, #5
    1748:	409d      	lsls	r5, r3
    174a:	2376      	movs	r3, #118	; 0x76
    174c:	425b      	negs	r3, r3
    174e:	1a18      	subs	r0, r3, r0
    1750:	2200      	movs	r2, #0
    1752:	e79d      	b.n	1690 <__aeabi_fmul+0x50>
    1754:	2080      	movs	r0, #128	; 0x80
    1756:	2400      	movs	r4, #0
    1758:	03c0      	lsls	r0, r0, #15
    175a:	22ff      	movs	r2, #255	; 0xff
    175c:	e7ba      	b.n	16d4 <__aeabi_fmul+0x94>
    175e:	003d      	movs	r5, r7
    1760:	4652      	mov	r2, sl
    1762:	e7ab      	b.n	16bc <__aeabi_fmul+0x7c>
    1764:	003d      	movs	r5, r7
    1766:	0021      	movs	r1, r4
    1768:	4652      	mov	r2, sl
    176a:	e7a7      	b.n	16bc <__aeabi_fmul+0x7c>
    176c:	0c3b      	lsrs	r3, r7, #16
    176e:	469c      	mov	ip, r3
    1770:	042a      	lsls	r2, r5, #16
    1772:	0c12      	lsrs	r2, r2, #16
    1774:	0c2b      	lsrs	r3, r5, #16
    1776:	0014      	movs	r4, r2
    1778:	4660      	mov	r0, ip
    177a:	4665      	mov	r5, ip
    177c:	043f      	lsls	r7, r7, #16
    177e:	0c3f      	lsrs	r7, r7, #16
    1780:	437c      	muls	r4, r7
    1782:	4342      	muls	r2, r0
    1784:	435d      	muls	r5, r3
    1786:	437b      	muls	r3, r7
    1788:	0c27      	lsrs	r7, r4, #16
    178a:	189b      	adds	r3, r3, r2
    178c:	18ff      	adds	r7, r7, r3
    178e:	42ba      	cmp	r2, r7
    1790:	d903      	bls.n	179a <__aeabi_fmul+0x15a>
    1792:	2380      	movs	r3, #128	; 0x80
    1794:	025b      	lsls	r3, r3, #9
    1796:	469c      	mov	ip, r3
    1798:	4465      	add	r5, ip
    179a:	0424      	lsls	r4, r4, #16
    179c:	043a      	lsls	r2, r7, #16
    179e:	0c24      	lsrs	r4, r4, #16
    17a0:	1912      	adds	r2, r2, r4
    17a2:	0193      	lsls	r3, r2, #6
    17a4:	1e5c      	subs	r4, r3, #1
    17a6:	41a3      	sbcs	r3, r4
    17a8:	0c3f      	lsrs	r7, r7, #16
    17aa:	0e92      	lsrs	r2, r2, #26
    17ac:	197d      	adds	r5, r7, r5
    17ae:	431a      	orrs	r2, r3
    17b0:	01ad      	lsls	r5, r5, #6
    17b2:	4315      	orrs	r5, r2
    17b4:	012b      	lsls	r3, r5, #4
    17b6:	d504      	bpl.n	17c2 <__aeabi_fmul+0x182>
    17b8:	2301      	movs	r3, #1
    17ba:	465e      	mov	r6, fp
    17bc:	086a      	lsrs	r2, r5, #1
    17be:	401d      	ands	r5, r3
    17c0:	4315      	orrs	r5, r2
    17c2:	0032      	movs	r2, r6
    17c4:	327f      	adds	r2, #127	; 0x7f
    17c6:	2a00      	cmp	r2, #0
    17c8:	dd25      	ble.n	1816 <__aeabi_fmul+0x1d6>
    17ca:	076b      	lsls	r3, r5, #29
    17cc:	d004      	beq.n	17d8 <__aeabi_fmul+0x198>
    17ce:	230f      	movs	r3, #15
    17d0:	402b      	ands	r3, r5
    17d2:	2b04      	cmp	r3, #4
    17d4:	d000      	beq.n	17d8 <__aeabi_fmul+0x198>
    17d6:	3504      	adds	r5, #4
    17d8:	012b      	lsls	r3, r5, #4
    17da:	d503      	bpl.n	17e4 <__aeabi_fmul+0x1a4>
    17dc:	0032      	movs	r2, r6
    17de:	4b27      	ldr	r3, [pc, #156]	; (187c <__aeabi_fmul+0x23c>)
    17e0:	3280      	adds	r2, #128	; 0x80
    17e2:	401d      	ands	r5, r3
    17e4:	2afe      	cmp	r2, #254	; 0xfe
    17e6:	dc94      	bgt.n	1712 <__aeabi_fmul+0xd2>
    17e8:	2401      	movs	r4, #1
    17ea:	01a8      	lsls	r0, r5, #6
    17ec:	0a40      	lsrs	r0, r0, #9
    17ee:	b2d2      	uxtb	r2, r2
    17f0:	400c      	ands	r4, r1
    17f2:	e76f      	b.n	16d4 <__aeabi_fmul+0x94>
    17f4:	2080      	movs	r0, #128	; 0x80
    17f6:	03c0      	lsls	r0, r0, #15
    17f8:	4207      	tst	r7, r0
    17fa:	d007      	beq.n	180c <__aeabi_fmul+0x1cc>
    17fc:	4205      	tst	r5, r0
    17fe:	d105      	bne.n	180c <__aeabi_fmul+0x1cc>
    1800:	4328      	orrs	r0, r5
    1802:	0240      	lsls	r0, r0, #9
    1804:	0a40      	lsrs	r0, r0, #9
    1806:	4644      	mov	r4, r8
    1808:	22ff      	movs	r2, #255	; 0xff
    180a:	e763      	b.n	16d4 <__aeabi_fmul+0x94>
    180c:	4338      	orrs	r0, r7
    180e:	0240      	lsls	r0, r0, #9
    1810:	0a40      	lsrs	r0, r0, #9
    1812:	22ff      	movs	r2, #255	; 0xff
    1814:	e75e      	b.n	16d4 <__aeabi_fmul+0x94>
    1816:	2401      	movs	r4, #1
    1818:	1aa3      	subs	r3, r4, r2
    181a:	2b1b      	cmp	r3, #27
    181c:	dd05      	ble.n	182a <__aeabi_fmul+0x1ea>
    181e:	400c      	ands	r4, r1
    1820:	2200      	movs	r2, #0
    1822:	2000      	movs	r0, #0
    1824:	e756      	b.n	16d4 <__aeabi_fmul+0x94>
    1826:	465e      	mov	r6, fp
    1828:	e7cb      	b.n	17c2 <__aeabi_fmul+0x182>
    182a:	002a      	movs	r2, r5
    182c:	2020      	movs	r0, #32
    182e:	40da      	lsrs	r2, r3
    1830:	1ac3      	subs	r3, r0, r3
    1832:	409d      	lsls	r5, r3
    1834:	002b      	movs	r3, r5
    1836:	1e5d      	subs	r5, r3, #1
    1838:	41ab      	sbcs	r3, r5
    183a:	4313      	orrs	r3, r2
    183c:	075a      	lsls	r2, r3, #29
    183e:	d004      	beq.n	184a <__aeabi_fmul+0x20a>
    1840:	220f      	movs	r2, #15
    1842:	401a      	ands	r2, r3
    1844:	2a04      	cmp	r2, #4
    1846:	d000      	beq.n	184a <__aeabi_fmul+0x20a>
    1848:	3304      	adds	r3, #4
    184a:	015a      	lsls	r2, r3, #5
    184c:	d504      	bpl.n	1858 <__aeabi_fmul+0x218>
    184e:	2401      	movs	r4, #1
    1850:	2201      	movs	r2, #1
    1852:	400c      	ands	r4, r1
    1854:	2000      	movs	r0, #0
    1856:	e73d      	b.n	16d4 <__aeabi_fmul+0x94>
    1858:	2401      	movs	r4, #1
    185a:	019b      	lsls	r3, r3, #6
    185c:	0a58      	lsrs	r0, r3, #9
    185e:	400c      	ands	r4, r1
    1860:	2200      	movs	r2, #0
    1862:	e737      	b.n	16d4 <__aeabi_fmul+0x94>
    1864:	2080      	movs	r0, #128	; 0x80
    1866:	2401      	movs	r4, #1
    1868:	03c0      	lsls	r0, r0, #15
    186a:	4328      	orrs	r0, r5
    186c:	0240      	lsls	r0, r0, #9
    186e:	0a40      	lsrs	r0, r0, #9
    1870:	400c      	ands	r4, r1
    1872:	22ff      	movs	r2, #255	; 0xff
    1874:	e72e      	b.n	16d4 <__aeabi_fmul+0x94>
    1876:	46c0      	nop			; (mov r8, r8)
    1878:	00003f44 	.word	0x00003f44
    187c:	f7ffffff 	.word	0xf7ffffff

00001880 <__aeabi_fsub>:
    1880:	b5f0      	push	{r4, r5, r6, r7, lr}
    1882:	464f      	mov	r7, r9
    1884:	46d6      	mov	lr, sl
    1886:	4646      	mov	r6, r8
    1888:	0044      	lsls	r4, r0, #1
    188a:	b5c0      	push	{r6, r7, lr}
    188c:	0fc2      	lsrs	r2, r0, #31
    188e:	0247      	lsls	r7, r0, #9
    1890:	0248      	lsls	r0, r1, #9
    1892:	0a40      	lsrs	r0, r0, #9
    1894:	4684      	mov	ip, r0
    1896:	4666      	mov	r6, ip
    1898:	0a7b      	lsrs	r3, r7, #9
    189a:	0048      	lsls	r0, r1, #1
    189c:	0fc9      	lsrs	r1, r1, #31
    189e:	469a      	mov	sl, r3
    18a0:	0e24      	lsrs	r4, r4, #24
    18a2:	0015      	movs	r5, r2
    18a4:	00db      	lsls	r3, r3, #3
    18a6:	0e00      	lsrs	r0, r0, #24
    18a8:	4689      	mov	r9, r1
    18aa:	00f6      	lsls	r6, r6, #3
    18ac:	28ff      	cmp	r0, #255	; 0xff
    18ae:	d100      	bne.n	18b2 <__aeabi_fsub+0x32>
    18b0:	e08f      	b.n	19d2 <__aeabi_fsub+0x152>
    18b2:	2101      	movs	r1, #1
    18b4:	464f      	mov	r7, r9
    18b6:	404f      	eors	r7, r1
    18b8:	0039      	movs	r1, r7
    18ba:	4291      	cmp	r1, r2
    18bc:	d066      	beq.n	198c <__aeabi_fsub+0x10c>
    18be:	1a22      	subs	r2, r4, r0
    18c0:	2a00      	cmp	r2, #0
    18c2:	dc00      	bgt.n	18c6 <__aeabi_fsub+0x46>
    18c4:	e09d      	b.n	1a02 <__aeabi_fsub+0x182>
    18c6:	2800      	cmp	r0, #0
    18c8:	d13d      	bne.n	1946 <__aeabi_fsub+0xc6>
    18ca:	2e00      	cmp	r6, #0
    18cc:	d100      	bne.n	18d0 <__aeabi_fsub+0x50>
    18ce:	e08b      	b.n	19e8 <__aeabi_fsub+0x168>
    18d0:	1e51      	subs	r1, r2, #1
    18d2:	2900      	cmp	r1, #0
    18d4:	d000      	beq.n	18d8 <__aeabi_fsub+0x58>
    18d6:	e0b5      	b.n	1a44 <__aeabi_fsub+0x1c4>
    18d8:	2401      	movs	r4, #1
    18da:	1b9b      	subs	r3, r3, r6
    18dc:	015a      	lsls	r2, r3, #5
    18de:	d544      	bpl.n	196a <__aeabi_fsub+0xea>
    18e0:	019b      	lsls	r3, r3, #6
    18e2:	099f      	lsrs	r7, r3, #6
    18e4:	0038      	movs	r0, r7
    18e6:	f001 f847 	bl	2978 <__clzsi2>
    18ea:	3805      	subs	r0, #5
    18ec:	4087      	lsls	r7, r0
    18ee:	4284      	cmp	r4, r0
    18f0:	dd00      	ble.n	18f4 <__aeabi_fsub+0x74>
    18f2:	e096      	b.n	1a22 <__aeabi_fsub+0x1a2>
    18f4:	1b04      	subs	r4, r0, r4
    18f6:	003a      	movs	r2, r7
    18f8:	2020      	movs	r0, #32
    18fa:	3401      	adds	r4, #1
    18fc:	40e2      	lsrs	r2, r4
    18fe:	1b04      	subs	r4, r0, r4
    1900:	40a7      	lsls	r7, r4
    1902:	003b      	movs	r3, r7
    1904:	1e5f      	subs	r7, r3, #1
    1906:	41bb      	sbcs	r3, r7
    1908:	2400      	movs	r4, #0
    190a:	4313      	orrs	r3, r2
    190c:	075a      	lsls	r2, r3, #29
    190e:	d004      	beq.n	191a <__aeabi_fsub+0x9a>
    1910:	220f      	movs	r2, #15
    1912:	401a      	ands	r2, r3
    1914:	2a04      	cmp	r2, #4
    1916:	d000      	beq.n	191a <__aeabi_fsub+0x9a>
    1918:	3304      	adds	r3, #4
    191a:	015a      	lsls	r2, r3, #5
    191c:	d527      	bpl.n	196e <__aeabi_fsub+0xee>
    191e:	3401      	adds	r4, #1
    1920:	2cff      	cmp	r4, #255	; 0xff
    1922:	d100      	bne.n	1926 <__aeabi_fsub+0xa6>
    1924:	e079      	b.n	1a1a <__aeabi_fsub+0x19a>
    1926:	2201      	movs	r2, #1
    1928:	019b      	lsls	r3, r3, #6
    192a:	0a5b      	lsrs	r3, r3, #9
    192c:	b2e4      	uxtb	r4, r4
    192e:	402a      	ands	r2, r5
    1930:	025b      	lsls	r3, r3, #9
    1932:	05e4      	lsls	r4, r4, #23
    1934:	0a58      	lsrs	r0, r3, #9
    1936:	07d2      	lsls	r2, r2, #31
    1938:	4320      	orrs	r0, r4
    193a:	4310      	orrs	r0, r2
    193c:	bc1c      	pop	{r2, r3, r4}
    193e:	4690      	mov	r8, r2
    1940:	4699      	mov	r9, r3
    1942:	46a2      	mov	sl, r4
    1944:	bdf0      	pop	{r4, r5, r6, r7, pc}
    1946:	2cff      	cmp	r4, #255	; 0xff
    1948:	d0e0      	beq.n	190c <__aeabi_fsub+0x8c>
    194a:	2180      	movs	r1, #128	; 0x80
    194c:	04c9      	lsls	r1, r1, #19
    194e:	430e      	orrs	r6, r1
    1950:	2a1b      	cmp	r2, #27
    1952:	dc7b      	bgt.n	1a4c <__aeabi_fsub+0x1cc>
    1954:	0031      	movs	r1, r6
    1956:	2020      	movs	r0, #32
    1958:	40d1      	lsrs	r1, r2
    195a:	1a82      	subs	r2, r0, r2
    195c:	4096      	lsls	r6, r2
    195e:	1e72      	subs	r2, r6, #1
    1960:	4196      	sbcs	r6, r2
    1962:	430e      	orrs	r6, r1
    1964:	1b9b      	subs	r3, r3, r6
    1966:	015a      	lsls	r2, r3, #5
    1968:	d4ba      	bmi.n	18e0 <__aeabi_fsub+0x60>
    196a:	075a      	lsls	r2, r3, #29
    196c:	d1d0      	bne.n	1910 <__aeabi_fsub+0x90>
    196e:	2201      	movs	r2, #1
    1970:	08df      	lsrs	r7, r3, #3
    1972:	402a      	ands	r2, r5
    1974:	2cff      	cmp	r4, #255	; 0xff
    1976:	d133      	bne.n	19e0 <__aeabi_fsub+0x160>
    1978:	2f00      	cmp	r7, #0
    197a:	d100      	bne.n	197e <__aeabi_fsub+0xfe>
    197c:	e0a8      	b.n	1ad0 <__aeabi_fsub+0x250>
    197e:	2380      	movs	r3, #128	; 0x80
    1980:	03db      	lsls	r3, r3, #15
    1982:	433b      	orrs	r3, r7
    1984:	025b      	lsls	r3, r3, #9
    1986:	0a5b      	lsrs	r3, r3, #9
    1988:	24ff      	movs	r4, #255	; 0xff
    198a:	e7d1      	b.n	1930 <__aeabi_fsub+0xb0>
    198c:	1a21      	subs	r1, r4, r0
    198e:	2900      	cmp	r1, #0
    1990:	dd4c      	ble.n	1a2c <__aeabi_fsub+0x1ac>
    1992:	2800      	cmp	r0, #0
    1994:	d02a      	beq.n	19ec <__aeabi_fsub+0x16c>
    1996:	2cff      	cmp	r4, #255	; 0xff
    1998:	d0b8      	beq.n	190c <__aeabi_fsub+0x8c>
    199a:	2080      	movs	r0, #128	; 0x80
    199c:	04c0      	lsls	r0, r0, #19
    199e:	4306      	orrs	r6, r0
    19a0:	291b      	cmp	r1, #27
    19a2:	dd00      	ble.n	19a6 <__aeabi_fsub+0x126>
    19a4:	e0af      	b.n	1b06 <__aeabi_fsub+0x286>
    19a6:	0030      	movs	r0, r6
    19a8:	2720      	movs	r7, #32
    19aa:	40c8      	lsrs	r0, r1
    19ac:	1a79      	subs	r1, r7, r1
    19ae:	408e      	lsls	r6, r1
    19b0:	1e71      	subs	r1, r6, #1
    19b2:	418e      	sbcs	r6, r1
    19b4:	4306      	orrs	r6, r0
    19b6:	199b      	adds	r3, r3, r6
    19b8:	0159      	lsls	r1, r3, #5
    19ba:	d5d6      	bpl.n	196a <__aeabi_fsub+0xea>
    19bc:	3401      	adds	r4, #1
    19be:	2cff      	cmp	r4, #255	; 0xff
    19c0:	d100      	bne.n	19c4 <__aeabi_fsub+0x144>
    19c2:	e085      	b.n	1ad0 <__aeabi_fsub+0x250>
    19c4:	2201      	movs	r2, #1
    19c6:	497a      	ldr	r1, [pc, #488]	; (1bb0 <__aeabi_fsub+0x330>)
    19c8:	401a      	ands	r2, r3
    19ca:	085b      	lsrs	r3, r3, #1
    19cc:	400b      	ands	r3, r1
    19ce:	4313      	orrs	r3, r2
    19d0:	e79c      	b.n	190c <__aeabi_fsub+0x8c>
    19d2:	2e00      	cmp	r6, #0
    19d4:	d000      	beq.n	19d8 <__aeabi_fsub+0x158>
    19d6:	e770      	b.n	18ba <__aeabi_fsub+0x3a>
    19d8:	e76b      	b.n	18b2 <__aeabi_fsub+0x32>
    19da:	1e3b      	subs	r3, r7, #0
    19dc:	d1c5      	bne.n	196a <__aeabi_fsub+0xea>
    19de:	2200      	movs	r2, #0
    19e0:	027b      	lsls	r3, r7, #9
    19e2:	0a5b      	lsrs	r3, r3, #9
    19e4:	b2e4      	uxtb	r4, r4
    19e6:	e7a3      	b.n	1930 <__aeabi_fsub+0xb0>
    19e8:	0014      	movs	r4, r2
    19ea:	e78f      	b.n	190c <__aeabi_fsub+0x8c>
    19ec:	2e00      	cmp	r6, #0
    19ee:	d04d      	beq.n	1a8c <__aeabi_fsub+0x20c>
    19f0:	1e48      	subs	r0, r1, #1
    19f2:	2800      	cmp	r0, #0
    19f4:	d157      	bne.n	1aa6 <__aeabi_fsub+0x226>
    19f6:	199b      	adds	r3, r3, r6
    19f8:	2401      	movs	r4, #1
    19fa:	015a      	lsls	r2, r3, #5
    19fc:	d5b5      	bpl.n	196a <__aeabi_fsub+0xea>
    19fe:	2402      	movs	r4, #2
    1a00:	e7e0      	b.n	19c4 <__aeabi_fsub+0x144>
    1a02:	2a00      	cmp	r2, #0
    1a04:	d125      	bne.n	1a52 <__aeabi_fsub+0x1d2>
    1a06:	1c62      	adds	r2, r4, #1
    1a08:	b2d2      	uxtb	r2, r2
    1a0a:	2a01      	cmp	r2, #1
    1a0c:	dd72      	ble.n	1af4 <__aeabi_fsub+0x274>
    1a0e:	1b9f      	subs	r7, r3, r6
    1a10:	017a      	lsls	r2, r7, #5
    1a12:	d535      	bpl.n	1a80 <__aeabi_fsub+0x200>
    1a14:	1af7      	subs	r7, r6, r3
    1a16:	000d      	movs	r5, r1
    1a18:	e764      	b.n	18e4 <__aeabi_fsub+0x64>
    1a1a:	2201      	movs	r2, #1
    1a1c:	2300      	movs	r3, #0
    1a1e:	402a      	ands	r2, r5
    1a20:	e786      	b.n	1930 <__aeabi_fsub+0xb0>
    1a22:	003b      	movs	r3, r7
    1a24:	4a63      	ldr	r2, [pc, #396]	; (1bb4 <__aeabi_fsub+0x334>)
    1a26:	1a24      	subs	r4, r4, r0
    1a28:	4013      	ands	r3, r2
    1a2a:	e76f      	b.n	190c <__aeabi_fsub+0x8c>
    1a2c:	2900      	cmp	r1, #0
    1a2e:	d16c      	bne.n	1b0a <__aeabi_fsub+0x28a>
    1a30:	1c61      	adds	r1, r4, #1
    1a32:	b2c8      	uxtb	r0, r1
    1a34:	2801      	cmp	r0, #1
    1a36:	dd4e      	ble.n	1ad6 <__aeabi_fsub+0x256>
    1a38:	29ff      	cmp	r1, #255	; 0xff
    1a3a:	d049      	beq.n	1ad0 <__aeabi_fsub+0x250>
    1a3c:	199b      	adds	r3, r3, r6
    1a3e:	085b      	lsrs	r3, r3, #1
    1a40:	000c      	movs	r4, r1
    1a42:	e763      	b.n	190c <__aeabi_fsub+0x8c>
    1a44:	2aff      	cmp	r2, #255	; 0xff
    1a46:	d041      	beq.n	1acc <__aeabi_fsub+0x24c>
    1a48:	000a      	movs	r2, r1
    1a4a:	e781      	b.n	1950 <__aeabi_fsub+0xd0>
    1a4c:	2601      	movs	r6, #1
    1a4e:	1b9b      	subs	r3, r3, r6
    1a50:	e789      	b.n	1966 <__aeabi_fsub+0xe6>
    1a52:	2c00      	cmp	r4, #0
    1a54:	d01c      	beq.n	1a90 <__aeabi_fsub+0x210>
    1a56:	28ff      	cmp	r0, #255	; 0xff
    1a58:	d021      	beq.n	1a9e <__aeabi_fsub+0x21e>
    1a5a:	2480      	movs	r4, #128	; 0x80
    1a5c:	04e4      	lsls	r4, r4, #19
    1a5e:	4252      	negs	r2, r2
    1a60:	4323      	orrs	r3, r4
    1a62:	2a1b      	cmp	r2, #27
    1a64:	dd00      	ble.n	1a68 <__aeabi_fsub+0x1e8>
    1a66:	e096      	b.n	1b96 <__aeabi_fsub+0x316>
    1a68:	001c      	movs	r4, r3
    1a6a:	2520      	movs	r5, #32
    1a6c:	40d4      	lsrs	r4, r2
    1a6e:	1aaa      	subs	r2, r5, r2
    1a70:	4093      	lsls	r3, r2
    1a72:	1e5a      	subs	r2, r3, #1
    1a74:	4193      	sbcs	r3, r2
    1a76:	4323      	orrs	r3, r4
    1a78:	1af3      	subs	r3, r6, r3
    1a7a:	0004      	movs	r4, r0
    1a7c:	000d      	movs	r5, r1
    1a7e:	e72d      	b.n	18dc <__aeabi_fsub+0x5c>
    1a80:	2f00      	cmp	r7, #0
    1a82:	d000      	beq.n	1a86 <__aeabi_fsub+0x206>
    1a84:	e72e      	b.n	18e4 <__aeabi_fsub+0x64>
    1a86:	2200      	movs	r2, #0
    1a88:	2400      	movs	r4, #0
    1a8a:	e7a9      	b.n	19e0 <__aeabi_fsub+0x160>
    1a8c:	000c      	movs	r4, r1
    1a8e:	e73d      	b.n	190c <__aeabi_fsub+0x8c>
    1a90:	2b00      	cmp	r3, #0
    1a92:	d058      	beq.n	1b46 <__aeabi_fsub+0x2c6>
    1a94:	43d2      	mvns	r2, r2
    1a96:	2a00      	cmp	r2, #0
    1a98:	d0ee      	beq.n	1a78 <__aeabi_fsub+0x1f8>
    1a9a:	28ff      	cmp	r0, #255	; 0xff
    1a9c:	d1e1      	bne.n	1a62 <__aeabi_fsub+0x1e2>
    1a9e:	0033      	movs	r3, r6
    1aa0:	24ff      	movs	r4, #255	; 0xff
    1aa2:	000d      	movs	r5, r1
    1aa4:	e732      	b.n	190c <__aeabi_fsub+0x8c>
    1aa6:	29ff      	cmp	r1, #255	; 0xff
    1aa8:	d010      	beq.n	1acc <__aeabi_fsub+0x24c>
    1aaa:	0001      	movs	r1, r0
    1aac:	e778      	b.n	19a0 <__aeabi_fsub+0x120>
    1aae:	2b00      	cmp	r3, #0
    1ab0:	d06e      	beq.n	1b90 <__aeabi_fsub+0x310>
    1ab2:	24ff      	movs	r4, #255	; 0xff
    1ab4:	2e00      	cmp	r6, #0
    1ab6:	d100      	bne.n	1aba <__aeabi_fsub+0x23a>
    1ab8:	e728      	b.n	190c <__aeabi_fsub+0x8c>
    1aba:	2280      	movs	r2, #128	; 0x80
    1abc:	4651      	mov	r1, sl
    1abe:	03d2      	lsls	r2, r2, #15
    1ac0:	4211      	tst	r1, r2
    1ac2:	d003      	beq.n	1acc <__aeabi_fsub+0x24c>
    1ac4:	4661      	mov	r1, ip
    1ac6:	4211      	tst	r1, r2
    1ac8:	d100      	bne.n	1acc <__aeabi_fsub+0x24c>
    1aca:	0033      	movs	r3, r6
    1acc:	24ff      	movs	r4, #255	; 0xff
    1ace:	e71d      	b.n	190c <__aeabi_fsub+0x8c>
    1ad0:	24ff      	movs	r4, #255	; 0xff
    1ad2:	2300      	movs	r3, #0
    1ad4:	e72c      	b.n	1930 <__aeabi_fsub+0xb0>
    1ad6:	2c00      	cmp	r4, #0
    1ad8:	d1e9      	bne.n	1aae <__aeabi_fsub+0x22e>
    1ada:	2b00      	cmp	r3, #0
    1adc:	d063      	beq.n	1ba6 <__aeabi_fsub+0x326>
    1ade:	2e00      	cmp	r6, #0
    1ae0:	d100      	bne.n	1ae4 <__aeabi_fsub+0x264>
    1ae2:	e713      	b.n	190c <__aeabi_fsub+0x8c>
    1ae4:	199b      	adds	r3, r3, r6
    1ae6:	015a      	lsls	r2, r3, #5
    1ae8:	d400      	bmi.n	1aec <__aeabi_fsub+0x26c>
    1aea:	e73e      	b.n	196a <__aeabi_fsub+0xea>
    1aec:	4a31      	ldr	r2, [pc, #196]	; (1bb4 <__aeabi_fsub+0x334>)
    1aee:	000c      	movs	r4, r1
    1af0:	4013      	ands	r3, r2
    1af2:	e70b      	b.n	190c <__aeabi_fsub+0x8c>
    1af4:	2c00      	cmp	r4, #0
    1af6:	d11e      	bne.n	1b36 <__aeabi_fsub+0x2b6>
    1af8:	2b00      	cmp	r3, #0
    1afa:	d12f      	bne.n	1b5c <__aeabi_fsub+0x2dc>
    1afc:	2e00      	cmp	r6, #0
    1afe:	d04f      	beq.n	1ba0 <__aeabi_fsub+0x320>
    1b00:	0033      	movs	r3, r6
    1b02:	000d      	movs	r5, r1
    1b04:	e702      	b.n	190c <__aeabi_fsub+0x8c>
    1b06:	2601      	movs	r6, #1
    1b08:	e755      	b.n	19b6 <__aeabi_fsub+0x136>
    1b0a:	2c00      	cmp	r4, #0
    1b0c:	d11f      	bne.n	1b4e <__aeabi_fsub+0x2ce>
    1b0e:	2b00      	cmp	r3, #0
    1b10:	d043      	beq.n	1b9a <__aeabi_fsub+0x31a>
    1b12:	43c9      	mvns	r1, r1
    1b14:	2900      	cmp	r1, #0
    1b16:	d00b      	beq.n	1b30 <__aeabi_fsub+0x2b0>
    1b18:	28ff      	cmp	r0, #255	; 0xff
    1b1a:	d039      	beq.n	1b90 <__aeabi_fsub+0x310>
    1b1c:	291b      	cmp	r1, #27
    1b1e:	dc44      	bgt.n	1baa <__aeabi_fsub+0x32a>
    1b20:	001c      	movs	r4, r3
    1b22:	2720      	movs	r7, #32
    1b24:	40cc      	lsrs	r4, r1
    1b26:	1a79      	subs	r1, r7, r1
    1b28:	408b      	lsls	r3, r1
    1b2a:	1e59      	subs	r1, r3, #1
    1b2c:	418b      	sbcs	r3, r1
    1b2e:	4323      	orrs	r3, r4
    1b30:	199b      	adds	r3, r3, r6
    1b32:	0004      	movs	r4, r0
    1b34:	e740      	b.n	19b8 <__aeabi_fsub+0x138>
    1b36:	2b00      	cmp	r3, #0
    1b38:	d11a      	bne.n	1b70 <__aeabi_fsub+0x2f0>
    1b3a:	2e00      	cmp	r6, #0
    1b3c:	d124      	bne.n	1b88 <__aeabi_fsub+0x308>
    1b3e:	2780      	movs	r7, #128	; 0x80
    1b40:	2200      	movs	r2, #0
    1b42:	03ff      	lsls	r7, r7, #15
    1b44:	e71b      	b.n	197e <__aeabi_fsub+0xfe>
    1b46:	0033      	movs	r3, r6
    1b48:	0004      	movs	r4, r0
    1b4a:	000d      	movs	r5, r1
    1b4c:	e6de      	b.n	190c <__aeabi_fsub+0x8c>
    1b4e:	28ff      	cmp	r0, #255	; 0xff
    1b50:	d01e      	beq.n	1b90 <__aeabi_fsub+0x310>
    1b52:	2480      	movs	r4, #128	; 0x80
    1b54:	04e4      	lsls	r4, r4, #19
    1b56:	4249      	negs	r1, r1
    1b58:	4323      	orrs	r3, r4
    1b5a:	e7df      	b.n	1b1c <__aeabi_fsub+0x29c>
    1b5c:	2e00      	cmp	r6, #0
    1b5e:	d100      	bne.n	1b62 <__aeabi_fsub+0x2e2>
    1b60:	e6d4      	b.n	190c <__aeabi_fsub+0x8c>
    1b62:	1b9f      	subs	r7, r3, r6
    1b64:	017a      	lsls	r2, r7, #5
    1b66:	d400      	bmi.n	1b6a <__aeabi_fsub+0x2ea>
    1b68:	e737      	b.n	19da <__aeabi_fsub+0x15a>
    1b6a:	1af3      	subs	r3, r6, r3
    1b6c:	000d      	movs	r5, r1
    1b6e:	e6cd      	b.n	190c <__aeabi_fsub+0x8c>
    1b70:	24ff      	movs	r4, #255	; 0xff
    1b72:	2e00      	cmp	r6, #0
    1b74:	d100      	bne.n	1b78 <__aeabi_fsub+0x2f8>
    1b76:	e6c9      	b.n	190c <__aeabi_fsub+0x8c>
    1b78:	2280      	movs	r2, #128	; 0x80
    1b7a:	4650      	mov	r0, sl
    1b7c:	03d2      	lsls	r2, r2, #15
    1b7e:	4210      	tst	r0, r2
    1b80:	d0a4      	beq.n	1acc <__aeabi_fsub+0x24c>
    1b82:	4660      	mov	r0, ip
    1b84:	4210      	tst	r0, r2
    1b86:	d1a1      	bne.n	1acc <__aeabi_fsub+0x24c>
    1b88:	0033      	movs	r3, r6
    1b8a:	000d      	movs	r5, r1
    1b8c:	24ff      	movs	r4, #255	; 0xff
    1b8e:	e6bd      	b.n	190c <__aeabi_fsub+0x8c>
    1b90:	0033      	movs	r3, r6
    1b92:	24ff      	movs	r4, #255	; 0xff
    1b94:	e6ba      	b.n	190c <__aeabi_fsub+0x8c>
    1b96:	2301      	movs	r3, #1
    1b98:	e76e      	b.n	1a78 <__aeabi_fsub+0x1f8>
    1b9a:	0033      	movs	r3, r6
    1b9c:	0004      	movs	r4, r0
    1b9e:	e6b5      	b.n	190c <__aeabi_fsub+0x8c>
    1ba0:	2700      	movs	r7, #0
    1ba2:	2200      	movs	r2, #0
    1ba4:	e71c      	b.n	19e0 <__aeabi_fsub+0x160>
    1ba6:	0033      	movs	r3, r6
    1ba8:	e6b0      	b.n	190c <__aeabi_fsub+0x8c>
    1baa:	2301      	movs	r3, #1
    1bac:	e7c0      	b.n	1b30 <__aeabi_fsub+0x2b0>
    1bae:	46c0      	nop			; (mov r8, r8)
    1bb0:	7dffffff 	.word	0x7dffffff
    1bb4:	fbffffff 	.word	0xfbffffff

00001bb8 <__aeabi_f2iz>:
    1bb8:	0241      	lsls	r1, r0, #9
    1bba:	0043      	lsls	r3, r0, #1
    1bbc:	0fc2      	lsrs	r2, r0, #31
    1bbe:	0a49      	lsrs	r1, r1, #9
    1bc0:	0e1b      	lsrs	r3, r3, #24
    1bc2:	2000      	movs	r0, #0
    1bc4:	2b7e      	cmp	r3, #126	; 0x7e
    1bc6:	dd0d      	ble.n	1be4 <__aeabi_f2iz+0x2c>
    1bc8:	2b9d      	cmp	r3, #157	; 0x9d
    1bca:	dc0c      	bgt.n	1be6 <__aeabi_f2iz+0x2e>
    1bcc:	2080      	movs	r0, #128	; 0x80
    1bce:	0400      	lsls	r0, r0, #16
    1bd0:	4301      	orrs	r1, r0
    1bd2:	2b95      	cmp	r3, #149	; 0x95
    1bd4:	dc0a      	bgt.n	1bec <__aeabi_f2iz+0x34>
    1bd6:	2096      	movs	r0, #150	; 0x96
    1bd8:	1ac3      	subs	r3, r0, r3
    1bda:	40d9      	lsrs	r1, r3
    1bdc:	4248      	negs	r0, r1
    1bde:	2a00      	cmp	r2, #0
    1be0:	d100      	bne.n	1be4 <__aeabi_f2iz+0x2c>
    1be2:	0008      	movs	r0, r1
    1be4:	4770      	bx	lr
    1be6:	4b03      	ldr	r3, [pc, #12]	; (1bf4 <__aeabi_f2iz+0x3c>)
    1be8:	18d0      	adds	r0, r2, r3
    1bea:	e7fb      	b.n	1be4 <__aeabi_f2iz+0x2c>
    1bec:	3b96      	subs	r3, #150	; 0x96
    1bee:	4099      	lsls	r1, r3
    1bf0:	e7f4      	b.n	1bdc <__aeabi_f2iz+0x24>
    1bf2:	46c0      	nop			; (mov r8, r8)
    1bf4:	7fffffff 	.word	0x7fffffff

00001bf8 <__aeabi_ui2f>:
    1bf8:	b510      	push	{r4, lr}
    1bfa:	1e04      	subs	r4, r0, #0
    1bfc:	d027      	beq.n	1c4e <__aeabi_ui2f+0x56>
    1bfe:	f000 febb 	bl	2978 <__clzsi2>
    1c02:	239e      	movs	r3, #158	; 0x9e
    1c04:	1a1b      	subs	r3, r3, r0
    1c06:	2b96      	cmp	r3, #150	; 0x96
    1c08:	dc0a      	bgt.n	1c20 <__aeabi_ui2f+0x28>
    1c0a:	2296      	movs	r2, #150	; 0x96
    1c0c:	1ad2      	subs	r2, r2, r3
    1c0e:	4094      	lsls	r4, r2
    1c10:	0264      	lsls	r4, r4, #9
    1c12:	0a64      	lsrs	r4, r4, #9
    1c14:	b2db      	uxtb	r3, r3
    1c16:	0264      	lsls	r4, r4, #9
    1c18:	05db      	lsls	r3, r3, #23
    1c1a:	0a60      	lsrs	r0, r4, #9
    1c1c:	4318      	orrs	r0, r3
    1c1e:	bd10      	pop	{r4, pc}
    1c20:	2b99      	cmp	r3, #153	; 0x99
    1c22:	dc17      	bgt.n	1c54 <__aeabi_ui2f+0x5c>
    1c24:	2299      	movs	r2, #153	; 0x99
    1c26:	1ad2      	subs	r2, r2, r3
    1c28:	2a00      	cmp	r2, #0
    1c2a:	dd27      	ble.n	1c7c <__aeabi_ui2f+0x84>
    1c2c:	4094      	lsls	r4, r2
    1c2e:	0022      	movs	r2, r4
    1c30:	4c13      	ldr	r4, [pc, #76]	; (1c80 <__aeabi_ui2f+0x88>)
    1c32:	4014      	ands	r4, r2
    1c34:	0751      	lsls	r1, r2, #29
    1c36:	d004      	beq.n	1c42 <__aeabi_ui2f+0x4a>
    1c38:	210f      	movs	r1, #15
    1c3a:	400a      	ands	r2, r1
    1c3c:	2a04      	cmp	r2, #4
    1c3e:	d000      	beq.n	1c42 <__aeabi_ui2f+0x4a>
    1c40:	3404      	adds	r4, #4
    1c42:	0162      	lsls	r2, r4, #5
    1c44:	d412      	bmi.n	1c6c <__aeabi_ui2f+0x74>
    1c46:	01a4      	lsls	r4, r4, #6
    1c48:	0a64      	lsrs	r4, r4, #9
    1c4a:	b2db      	uxtb	r3, r3
    1c4c:	e7e3      	b.n	1c16 <__aeabi_ui2f+0x1e>
    1c4e:	2300      	movs	r3, #0
    1c50:	2400      	movs	r4, #0
    1c52:	e7e0      	b.n	1c16 <__aeabi_ui2f+0x1e>
    1c54:	22b9      	movs	r2, #185	; 0xb9
    1c56:	0021      	movs	r1, r4
    1c58:	1ad2      	subs	r2, r2, r3
    1c5a:	4091      	lsls	r1, r2
    1c5c:	000a      	movs	r2, r1
    1c5e:	1e51      	subs	r1, r2, #1
    1c60:	418a      	sbcs	r2, r1
    1c62:	2105      	movs	r1, #5
    1c64:	1a09      	subs	r1, r1, r0
    1c66:	40cc      	lsrs	r4, r1
    1c68:	4314      	orrs	r4, r2
    1c6a:	e7db      	b.n	1c24 <__aeabi_ui2f+0x2c>
    1c6c:	4b04      	ldr	r3, [pc, #16]	; (1c80 <__aeabi_ui2f+0x88>)
    1c6e:	401c      	ands	r4, r3
    1c70:	239f      	movs	r3, #159	; 0x9f
    1c72:	01a4      	lsls	r4, r4, #6
    1c74:	1a1b      	subs	r3, r3, r0
    1c76:	0a64      	lsrs	r4, r4, #9
    1c78:	b2db      	uxtb	r3, r3
    1c7a:	e7cc      	b.n	1c16 <__aeabi_ui2f+0x1e>
    1c7c:	0022      	movs	r2, r4
    1c7e:	e7d7      	b.n	1c30 <__aeabi_ui2f+0x38>
    1c80:	fbffffff 	.word	0xfbffffff

00001c84 <__aeabi_dmul>:
    1c84:	b5f0      	push	{r4, r5, r6, r7, lr}
    1c86:	4657      	mov	r7, sl
    1c88:	4645      	mov	r5, r8
    1c8a:	46de      	mov	lr, fp
    1c8c:	464e      	mov	r6, r9
    1c8e:	b5e0      	push	{r5, r6, r7, lr}
    1c90:	030c      	lsls	r4, r1, #12
    1c92:	4698      	mov	r8, r3
    1c94:	004e      	lsls	r6, r1, #1
    1c96:	0b23      	lsrs	r3, r4, #12
    1c98:	b087      	sub	sp, #28
    1c9a:	0007      	movs	r7, r0
    1c9c:	4692      	mov	sl, r2
    1c9e:	469b      	mov	fp, r3
    1ca0:	0d76      	lsrs	r6, r6, #21
    1ca2:	0fcd      	lsrs	r5, r1, #31
    1ca4:	2e00      	cmp	r6, #0
    1ca6:	d06b      	beq.n	1d80 <__aeabi_dmul+0xfc>
    1ca8:	4b6d      	ldr	r3, [pc, #436]	; (1e60 <__aeabi_dmul+0x1dc>)
    1caa:	429e      	cmp	r6, r3
    1cac:	d035      	beq.n	1d1a <__aeabi_dmul+0x96>
    1cae:	2480      	movs	r4, #128	; 0x80
    1cb0:	465b      	mov	r3, fp
    1cb2:	0f42      	lsrs	r2, r0, #29
    1cb4:	0424      	lsls	r4, r4, #16
    1cb6:	00db      	lsls	r3, r3, #3
    1cb8:	4314      	orrs	r4, r2
    1cba:	431c      	orrs	r4, r3
    1cbc:	00c3      	lsls	r3, r0, #3
    1cbe:	4699      	mov	r9, r3
    1cc0:	4b68      	ldr	r3, [pc, #416]	; (1e64 <__aeabi_dmul+0x1e0>)
    1cc2:	46a3      	mov	fp, r4
    1cc4:	469c      	mov	ip, r3
    1cc6:	2300      	movs	r3, #0
    1cc8:	2700      	movs	r7, #0
    1cca:	4466      	add	r6, ip
    1ccc:	9302      	str	r3, [sp, #8]
    1cce:	4643      	mov	r3, r8
    1cd0:	031c      	lsls	r4, r3, #12
    1cd2:	005a      	lsls	r2, r3, #1
    1cd4:	0fdb      	lsrs	r3, r3, #31
    1cd6:	4650      	mov	r0, sl
    1cd8:	0b24      	lsrs	r4, r4, #12
    1cda:	0d52      	lsrs	r2, r2, #21
    1cdc:	4698      	mov	r8, r3
    1cde:	d100      	bne.n	1ce2 <__aeabi_dmul+0x5e>
    1ce0:	e076      	b.n	1dd0 <__aeabi_dmul+0x14c>
    1ce2:	4b5f      	ldr	r3, [pc, #380]	; (1e60 <__aeabi_dmul+0x1dc>)
    1ce4:	429a      	cmp	r2, r3
    1ce6:	d06d      	beq.n	1dc4 <__aeabi_dmul+0x140>
    1ce8:	2380      	movs	r3, #128	; 0x80
    1cea:	0f41      	lsrs	r1, r0, #29
    1cec:	041b      	lsls	r3, r3, #16
    1cee:	430b      	orrs	r3, r1
    1cf0:	495c      	ldr	r1, [pc, #368]	; (1e64 <__aeabi_dmul+0x1e0>)
    1cf2:	00e4      	lsls	r4, r4, #3
    1cf4:	468c      	mov	ip, r1
    1cf6:	431c      	orrs	r4, r3
    1cf8:	00c3      	lsls	r3, r0, #3
    1cfa:	2000      	movs	r0, #0
    1cfc:	4462      	add	r2, ip
    1cfe:	4641      	mov	r1, r8
    1d00:	18b6      	adds	r6, r6, r2
    1d02:	4069      	eors	r1, r5
    1d04:	1c72      	adds	r2, r6, #1
    1d06:	9101      	str	r1, [sp, #4]
    1d08:	4694      	mov	ip, r2
    1d0a:	4307      	orrs	r7, r0
    1d0c:	2f0f      	cmp	r7, #15
    1d0e:	d900      	bls.n	1d12 <__aeabi_dmul+0x8e>
    1d10:	e0b0      	b.n	1e74 <__aeabi_dmul+0x1f0>
    1d12:	4a55      	ldr	r2, [pc, #340]	; (1e68 <__aeabi_dmul+0x1e4>)
    1d14:	00bf      	lsls	r7, r7, #2
    1d16:	59d2      	ldr	r2, [r2, r7]
    1d18:	4697      	mov	pc, r2
    1d1a:	465b      	mov	r3, fp
    1d1c:	4303      	orrs	r3, r0
    1d1e:	4699      	mov	r9, r3
    1d20:	d000      	beq.n	1d24 <__aeabi_dmul+0xa0>
    1d22:	e087      	b.n	1e34 <__aeabi_dmul+0x1b0>
    1d24:	2300      	movs	r3, #0
    1d26:	469b      	mov	fp, r3
    1d28:	3302      	adds	r3, #2
    1d2a:	2708      	movs	r7, #8
    1d2c:	9302      	str	r3, [sp, #8]
    1d2e:	e7ce      	b.n	1cce <__aeabi_dmul+0x4a>
    1d30:	4642      	mov	r2, r8
    1d32:	9201      	str	r2, [sp, #4]
    1d34:	2802      	cmp	r0, #2
    1d36:	d067      	beq.n	1e08 <__aeabi_dmul+0x184>
    1d38:	2803      	cmp	r0, #3
    1d3a:	d100      	bne.n	1d3e <__aeabi_dmul+0xba>
    1d3c:	e20e      	b.n	215c <__aeabi_dmul+0x4d8>
    1d3e:	2801      	cmp	r0, #1
    1d40:	d000      	beq.n	1d44 <__aeabi_dmul+0xc0>
    1d42:	e162      	b.n	200a <__aeabi_dmul+0x386>
    1d44:	2300      	movs	r3, #0
    1d46:	2400      	movs	r4, #0
    1d48:	2200      	movs	r2, #0
    1d4a:	4699      	mov	r9, r3
    1d4c:	9901      	ldr	r1, [sp, #4]
    1d4e:	4001      	ands	r1, r0
    1d50:	b2cd      	uxtb	r5, r1
    1d52:	2100      	movs	r1, #0
    1d54:	0312      	lsls	r2, r2, #12
    1d56:	0d0b      	lsrs	r3, r1, #20
    1d58:	0b12      	lsrs	r2, r2, #12
    1d5a:	051b      	lsls	r3, r3, #20
    1d5c:	4313      	orrs	r3, r2
    1d5e:	4a43      	ldr	r2, [pc, #268]	; (1e6c <__aeabi_dmul+0x1e8>)
    1d60:	0524      	lsls	r4, r4, #20
    1d62:	4013      	ands	r3, r2
    1d64:	431c      	orrs	r4, r3
    1d66:	0064      	lsls	r4, r4, #1
    1d68:	07ed      	lsls	r5, r5, #31
    1d6a:	0864      	lsrs	r4, r4, #1
    1d6c:	432c      	orrs	r4, r5
    1d6e:	4648      	mov	r0, r9
    1d70:	0021      	movs	r1, r4
    1d72:	b007      	add	sp, #28
    1d74:	bc3c      	pop	{r2, r3, r4, r5}
    1d76:	4690      	mov	r8, r2
    1d78:	4699      	mov	r9, r3
    1d7a:	46a2      	mov	sl, r4
    1d7c:	46ab      	mov	fp, r5
    1d7e:	bdf0      	pop	{r4, r5, r6, r7, pc}
    1d80:	4303      	orrs	r3, r0
    1d82:	4699      	mov	r9, r3
    1d84:	d04f      	beq.n	1e26 <__aeabi_dmul+0x1a2>
    1d86:	465b      	mov	r3, fp
    1d88:	2b00      	cmp	r3, #0
    1d8a:	d100      	bne.n	1d8e <__aeabi_dmul+0x10a>
    1d8c:	e189      	b.n	20a2 <__aeabi_dmul+0x41e>
    1d8e:	4658      	mov	r0, fp
    1d90:	f000 fdf2 	bl	2978 <__clzsi2>
    1d94:	0003      	movs	r3, r0
    1d96:	3b0b      	subs	r3, #11
    1d98:	2b1c      	cmp	r3, #28
    1d9a:	dd00      	ble.n	1d9e <__aeabi_dmul+0x11a>
    1d9c:	e17a      	b.n	2094 <__aeabi_dmul+0x410>
    1d9e:	221d      	movs	r2, #29
    1da0:	1ad3      	subs	r3, r2, r3
    1da2:	003a      	movs	r2, r7
    1da4:	0001      	movs	r1, r0
    1da6:	465c      	mov	r4, fp
    1da8:	40da      	lsrs	r2, r3
    1daa:	3908      	subs	r1, #8
    1dac:	408c      	lsls	r4, r1
    1dae:	0013      	movs	r3, r2
    1db0:	408f      	lsls	r7, r1
    1db2:	4323      	orrs	r3, r4
    1db4:	469b      	mov	fp, r3
    1db6:	46b9      	mov	r9, r7
    1db8:	2300      	movs	r3, #0
    1dba:	4e2d      	ldr	r6, [pc, #180]	; (1e70 <__aeabi_dmul+0x1ec>)
    1dbc:	2700      	movs	r7, #0
    1dbe:	1a36      	subs	r6, r6, r0
    1dc0:	9302      	str	r3, [sp, #8]
    1dc2:	e784      	b.n	1cce <__aeabi_dmul+0x4a>
    1dc4:	4653      	mov	r3, sl
    1dc6:	4323      	orrs	r3, r4
    1dc8:	d12a      	bne.n	1e20 <__aeabi_dmul+0x19c>
    1dca:	2400      	movs	r4, #0
    1dcc:	2002      	movs	r0, #2
    1dce:	e796      	b.n	1cfe <__aeabi_dmul+0x7a>
    1dd0:	4653      	mov	r3, sl
    1dd2:	4323      	orrs	r3, r4
    1dd4:	d020      	beq.n	1e18 <__aeabi_dmul+0x194>
    1dd6:	2c00      	cmp	r4, #0
    1dd8:	d100      	bne.n	1ddc <__aeabi_dmul+0x158>
    1dda:	e157      	b.n	208c <__aeabi_dmul+0x408>
    1ddc:	0020      	movs	r0, r4
    1dde:	f000 fdcb 	bl	2978 <__clzsi2>
    1de2:	0003      	movs	r3, r0
    1de4:	3b0b      	subs	r3, #11
    1de6:	2b1c      	cmp	r3, #28
    1de8:	dd00      	ble.n	1dec <__aeabi_dmul+0x168>
    1dea:	e149      	b.n	2080 <__aeabi_dmul+0x3fc>
    1dec:	211d      	movs	r1, #29
    1dee:	1acb      	subs	r3, r1, r3
    1df0:	4651      	mov	r1, sl
    1df2:	0002      	movs	r2, r0
    1df4:	40d9      	lsrs	r1, r3
    1df6:	4653      	mov	r3, sl
    1df8:	3a08      	subs	r2, #8
    1dfa:	4094      	lsls	r4, r2
    1dfc:	4093      	lsls	r3, r2
    1dfe:	430c      	orrs	r4, r1
    1e00:	4a1b      	ldr	r2, [pc, #108]	; (1e70 <__aeabi_dmul+0x1ec>)
    1e02:	1a12      	subs	r2, r2, r0
    1e04:	2000      	movs	r0, #0
    1e06:	e77a      	b.n	1cfe <__aeabi_dmul+0x7a>
    1e08:	2501      	movs	r5, #1
    1e0a:	9b01      	ldr	r3, [sp, #4]
    1e0c:	4c14      	ldr	r4, [pc, #80]	; (1e60 <__aeabi_dmul+0x1dc>)
    1e0e:	401d      	ands	r5, r3
    1e10:	2300      	movs	r3, #0
    1e12:	2200      	movs	r2, #0
    1e14:	4699      	mov	r9, r3
    1e16:	e79c      	b.n	1d52 <__aeabi_dmul+0xce>
    1e18:	2400      	movs	r4, #0
    1e1a:	2200      	movs	r2, #0
    1e1c:	2001      	movs	r0, #1
    1e1e:	e76e      	b.n	1cfe <__aeabi_dmul+0x7a>
    1e20:	4653      	mov	r3, sl
    1e22:	2003      	movs	r0, #3
    1e24:	e76b      	b.n	1cfe <__aeabi_dmul+0x7a>
    1e26:	2300      	movs	r3, #0
    1e28:	469b      	mov	fp, r3
    1e2a:	3301      	adds	r3, #1
    1e2c:	2704      	movs	r7, #4
    1e2e:	2600      	movs	r6, #0
    1e30:	9302      	str	r3, [sp, #8]
    1e32:	e74c      	b.n	1cce <__aeabi_dmul+0x4a>
    1e34:	2303      	movs	r3, #3
    1e36:	4681      	mov	r9, r0
    1e38:	270c      	movs	r7, #12
    1e3a:	9302      	str	r3, [sp, #8]
    1e3c:	e747      	b.n	1cce <__aeabi_dmul+0x4a>
    1e3e:	2280      	movs	r2, #128	; 0x80
    1e40:	2300      	movs	r3, #0
    1e42:	2500      	movs	r5, #0
    1e44:	0312      	lsls	r2, r2, #12
    1e46:	4699      	mov	r9, r3
    1e48:	4c05      	ldr	r4, [pc, #20]	; (1e60 <__aeabi_dmul+0x1dc>)
    1e4a:	e782      	b.n	1d52 <__aeabi_dmul+0xce>
    1e4c:	465c      	mov	r4, fp
    1e4e:	464b      	mov	r3, r9
    1e50:	9802      	ldr	r0, [sp, #8]
    1e52:	e76f      	b.n	1d34 <__aeabi_dmul+0xb0>
    1e54:	465c      	mov	r4, fp
    1e56:	464b      	mov	r3, r9
    1e58:	9501      	str	r5, [sp, #4]
    1e5a:	9802      	ldr	r0, [sp, #8]
    1e5c:	e76a      	b.n	1d34 <__aeabi_dmul+0xb0>
    1e5e:	46c0      	nop			; (mov r8, r8)
    1e60:	000007ff 	.word	0x000007ff
    1e64:	fffffc01 	.word	0xfffffc01
    1e68:	00003f84 	.word	0x00003f84
    1e6c:	800fffff 	.word	0x800fffff
    1e70:	fffffc0d 	.word	0xfffffc0d
    1e74:	464a      	mov	r2, r9
    1e76:	4649      	mov	r1, r9
    1e78:	0c17      	lsrs	r7, r2, #16
    1e7a:	0c1a      	lsrs	r2, r3, #16
    1e7c:	041b      	lsls	r3, r3, #16
    1e7e:	0c1b      	lsrs	r3, r3, #16
    1e80:	0408      	lsls	r0, r1, #16
    1e82:	0019      	movs	r1, r3
    1e84:	0c00      	lsrs	r0, r0, #16
    1e86:	4341      	muls	r1, r0
    1e88:	0015      	movs	r5, r2
    1e8a:	4688      	mov	r8, r1
    1e8c:	0019      	movs	r1, r3
    1e8e:	437d      	muls	r5, r7
    1e90:	4379      	muls	r1, r7
    1e92:	9503      	str	r5, [sp, #12]
    1e94:	4689      	mov	r9, r1
    1e96:	0029      	movs	r1, r5
    1e98:	0015      	movs	r5, r2
    1e9a:	4345      	muls	r5, r0
    1e9c:	444d      	add	r5, r9
    1e9e:	9502      	str	r5, [sp, #8]
    1ea0:	4645      	mov	r5, r8
    1ea2:	0c2d      	lsrs	r5, r5, #16
    1ea4:	46aa      	mov	sl, r5
    1ea6:	9d02      	ldr	r5, [sp, #8]
    1ea8:	4455      	add	r5, sl
    1eaa:	45a9      	cmp	r9, r5
    1eac:	d906      	bls.n	1ebc <__aeabi_dmul+0x238>
    1eae:	468a      	mov	sl, r1
    1eb0:	2180      	movs	r1, #128	; 0x80
    1eb2:	0249      	lsls	r1, r1, #9
    1eb4:	4689      	mov	r9, r1
    1eb6:	44ca      	add	sl, r9
    1eb8:	4651      	mov	r1, sl
    1eba:	9103      	str	r1, [sp, #12]
    1ebc:	0c29      	lsrs	r1, r5, #16
    1ebe:	9104      	str	r1, [sp, #16]
    1ec0:	4641      	mov	r1, r8
    1ec2:	0409      	lsls	r1, r1, #16
    1ec4:	042d      	lsls	r5, r5, #16
    1ec6:	0c09      	lsrs	r1, r1, #16
    1ec8:	4688      	mov	r8, r1
    1eca:	0029      	movs	r1, r5
    1ecc:	0c25      	lsrs	r5, r4, #16
    1ece:	0424      	lsls	r4, r4, #16
    1ed0:	4441      	add	r1, r8
    1ed2:	0c24      	lsrs	r4, r4, #16
    1ed4:	9105      	str	r1, [sp, #20]
    1ed6:	0021      	movs	r1, r4
    1ed8:	4341      	muls	r1, r0
    1eda:	4688      	mov	r8, r1
    1edc:	0021      	movs	r1, r4
    1ede:	4379      	muls	r1, r7
    1ee0:	468a      	mov	sl, r1
    1ee2:	4368      	muls	r0, r5
    1ee4:	4641      	mov	r1, r8
    1ee6:	4450      	add	r0, sl
    1ee8:	4681      	mov	r9, r0
    1eea:	0c08      	lsrs	r0, r1, #16
    1eec:	4448      	add	r0, r9
    1eee:	436f      	muls	r7, r5
    1ef0:	4582      	cmp	sl, r0
    1ef2:	d903      	bls.n	1efc <__aeabi_dmul+0x278>
    1ef4:	2180      	movs	r1, #128	; 0x80
    1ef6:	0249      	lsls	r1, r1, #9
    1ef8:	4689      	mov	r9, r1
    1efa:	444f      	add	r7, r9
    1efc:	0c01      	lsrs	r1, r0, #16
    1efe:	4689      	mov	r9, r1
    1f00:	0039      	movs	r1, r7
    1f02:	4449      	add	r1, r9
    1f04:	9102      	str	r1, [sp, #8]
    1f06:	4641      	mov	r1, r8
    1f08:	040f      	lsls	r7, r1, #16
    1f0a:	9904      	ldr	r1, [sp, #16]
    1f0c:	0c3f      	lsrs	r7, r7, #16
    1f0e:	4688      	mov	r8, r1
    1f10:	0400      	lsls	r0, r0, #16
    1f12:	19c0      	adds	r0, r0, r7
    1f14:	4480      	add	r8, r0
    1f16:	4641      	mov	r1, r8
    1f18:	9104      	str	r1, [sp, #16]
    1f1a:	4659      	mov	r1, fp
    1f1c:	0c0f      	lsrs	r7, r1, #16
    1f1e:	0409      	lsls	r1, r1, #16
    1f20:	0c09      	lsrs	r1, r1, #16
    1f22:	4688      	mov	r8, r1
    1f24:	4359      	muls	r1, r3
    1f26:	468a      	mov	sl, r1
    1f28:	0039      	movs	r1, r7
    1f2a:	4351      	muls	r1, r2
    1f2c:	4689      	mov	r9, r1
    1f2e:	4641      	mov	r1, r8
    1f30:	434a      	muls	r2, r1
    1f32:	4651      	mov	r1, sl
    1f34:	0c09      	lsrs	r1, r1, #16
    1f36:	468b      	mov	fp, r1
    1f38:	437b      	muls	r3, r7
    1f3a:	18d2      	adds	r2, r2, r3
    1f3c:	445a      	add	r2, fp
    1f3e:	4293      	cmp	r3, r2
    1f40:	d903      	bls.n	1f4a <__aeabi_dmul+0x2c6>
    1f42:	2380      	movs	r3, #128	; 0x80
    1f44:	025b      	lsls	r3, r3, #9
    1f46:	469b      	mov	fp, r3
    1f48:	44d9      	add	r9, fp
    1f4a:	4651      	mov	r1, sl
    1f4c:	0409      	lsls	r1, r1, #16
    1f4e:	0c09      	lsrs	r1, r1, #16
    1f50:	468a      	mov	sl, r1
    1f52:	4641      	mov	r1, r8
    1f54:	4361      	muls	r1, r4
    1f56:	437c      	muls	r4, r7
    1f58:	0c13      	lsrs	r3, r2, #16
    1f5a:	0412      	lsls	r2, r2, #16
    1f5c:	444b      	add	r3, r9
    1f5e:	4452      	add	r2, sl
    1f60:	46a1      	mov	r9, r4
    1f62:	468a      	mov	sl, r1
    1f64:	003c      	movs	r4, r7
    1f66:	4641      	mov	r1, r8
    1f68:	436c      	muls	r4, r5
    1f6a:	434d      	muls	r5, r1
    1f6c:	4651      	mov	r1, sl
    1f6e:	444d      	add	r5, r9
    1f70:	0c0f      	lsrs	r7, r1, #16
    1f72:	197d      	adds	r5, r7, r5
    1f74:	45a9      	cmp	r9, r5
    1f76:	d903      	bls.n	1f80 <__aeabi_dmul+0x2fc>
    1f78:	2180      	movs	r1, #128	; 0x80
    1f7a:	0249      	lsls	r1, r1, #9
    1f7c:	4688      	mov	r8, r1
    1f7e:	4444      	add	r4, r8
    1f80:	9f04      	ldr	r7, [sp, #16]
    1f82:	9903      	ldr	r1, [sp, #12]
    1f84:	46b8      	mov	r8, r7
    1f86:	4441      	add	r1, r8
    1f88:	468b      	mov	fp, r1
    1f8a:	4583      	cmp	fp, r0
    1f8c:	4180      	sbcs	r0, r0
    1f8e:	4241      	negs	r1, r0
    1f90:	4688      	mov	r8, r1
    1f92:	4651      	mov	r1, sl
    1f94:	0408      	lsls	r0, r1, #16
    1f96:	042f      	lsls	r7, r5, #16
    1f98:	0c00      	lsrs	r0, r0, #16
    1f9a:	183f      	adds	r7, r7, r0
    1f9c:	4658      	mov	r0, fp
    1f9e:	9902      	ldr	r1, [sp, #8]
    1fa0:	1810      	adds	r0, r2, r0
    1fa2:	4689      	mov	r9, r1
    1fa4:	4290      	cmp	r0, r2
    1fa6:	4192      	sbcs	r2, r2
    1fa8:	444f      	add	r7, r9
    1faa:	46ba      	mov	sl, r7
    1fac:	4252      	negs	r2, r2
    1fae:	4699      	mov	r9, r3
    1fb0:	4693      	mov	fp, r2
    1fb2:	44c2      	add	sl, r8
    1fb4:	44d1      	add	r9, sl
    1fb6:	44cb      	add	fp, r9
    1fb8:	428f      	cmp	r7, r1
    1fba:	41bf      	sbcs	r7, r7
    1fbc:	45c2      	cmp	sl, r8
    1fbe:	4189      	sbcs	r1, r1
    1fc0:	4599      	cmp	r9, r3
    1fc2:	419b      	sbcs	r3, r3
    1fc4:	4593      	cmp	fp, r2
    1fc6:	4192      	sbcs	r2, r2
    1fc8:	427f      	negs	r7, r7
    1fca:	4249      	negs	r1, r1
    1fcc:	0c2d      	lsrs	r5, r5, #16
    1fce:	4252      	negs	r2, r2
    1fd0:	430f      	orrs	r7, r1
    1fd2:	425b      	negs	r3, r3
    1fd4:	4313      	orrs	r3, r2
    1fd6:	197f      	adds	r7, r7, r5
    1fd8:	18ff      	adds	r7, r7, r3
    1fda:	465b      	mov	r3, fp
    1fdc:	193c      	adds	r4, r7, r4
    1fde:	0ddb      	lsrs	r3, r3, #23
    1fe0:	9a05      	ldr	r2, [sp, #20]
    1fe2:	0264      	lsls	r4, r4, #9
    1fe4:	431c      	orrs	r4, r3
    1fe6:	0243      	lsls	r3, r0, #9
    1fe8:	4313      	orrs	r3, r2
    1fea:	1e5d      	subs	r5, r3, #1
    1fec:	41ab      	sbcs	r3, r5
    1fee:	465a      	mov	r2, fp
    1ff0:	0dc0      	lsrs	r0, r0, #23
    1ff2:	4303      	orrs	r3, r0
    1ff4:	0252      	lsls	r2, r2, #9
    1ff6:	4313      	orrs	r3, r2
    1ff8:	01e2      	lsls	r2, r4, #7
    1ffa:	d556      	bpl.n	20aa <__aeabi_dmul+0x426>
    1ffc:	2001      	movs	r0, #1
    1ffe:	085a      	lsrs	r2, r3, #1
    2000:	4003      	ands	r3, r0
    2002:	4313      	orrs	r3, r2
    2004:	07e2      	lsls	r2, r4, #31
    2006:	4313      	orrs	r3, r2
    2008:	0864      	lsrs	r4, r4, #1
    200a:	485a      	ldr	r0, [pc, #360]	; (2174 <__aeabi_dmul+0x4f0>)
    200c:	4460      	add	r0, ip
    200e:	2800      	cmp	r0, #0
    2010:	dd4d      	ble.n	20ae <__aeabi_dmul+0x42a>
    2012:	075a      	lsls	r2, r3, #29
    2014:	d009      	beq.n	202a <__aeabi_dmul+0x3a6>
    2016:	220f      	movs	r2, #15
    2018:	401a      	ands	r2, r3
    201a:	2a04      	cmp	r2, #4
    201c:	d005      	beq.n	202a <__aeabi_dmul+0x3a6>
    201e:	1d1a      	adds	r2, r3, #4
    2020:	429a      	cmp	r2, r3
    2022:	419b      	sbcs	r3, r3
    2024:	425b      	negs	r3, r3
    2026:	18e4      	adds	r4, r4, r3
    2028:	0013      	movs	r3, r2
    202a:	01e2      	lsls	r2, r4, #7
    202c:	d504      	bpl.n	2038 <__aeabi_dmul+0x3b4>
    202e:	2080      	movs	r0, #128	; 0x80
    2030:	4a51      	ldr	r2, [pc, #324]	; (2178 <__aeabi_dmul+0x4f4>)
    2032:	00c0      	lsls	r0, r0, #3
    2034:	4014      	ands	r4, r2
    2036:	4460      	add	r0, ip
    2038:	4a50      	ldr	r2, [pc, #320]	; (217c <__aeabi_dmul+0x4f8>)
    203a:	4290      	cmp	r0, r2
    203c:	dd00      	ble.n	2040 <__aeabi_dmul+0x3bc>
    203e:	e6e3      	b.n	1e08 <__aeabi_dmul+0x184>
    2040:	2501      	movs	r5, #1
    2042:	08db      	lsrs	r3, r3, #3
    2044:	0762      	lsls	r2, r4, #29
    2046:	431a      	orrs	r2, r3
    2048:	0264      	lsls	r4, r4, #9
    204a:	9b01      	ldr	r3, [sp, #4]
    204c:	4691      	mov	r9, r2
    204e:	0b22      	lsrs	r2, r4, #12
    2050:	0544      	lsls	r4, r0, #21
    2052:	0d64      	lsrs	r4, r4, #21
    2054:	401d      	ands	r5, r3
    2056:	e67c      	b.n	1d52 <__aeabi_dmul+0xce>
    2058:	2280      	movs	r2, #128	; 0x80
    205a:	4659      	mov	r1, fp
    205c:	0312      	lsls	r2, r2, #12
    205e:	4211      	tst	r1, r2
    2060:	d008      	beq.n	2074 <__aeabi_dmul+0x3f0>
    2062:	4214      	tst	r4, r2
    2064:	d106      	bne.n	2074 <__aeabi_dmul+0x3f0>
    2066:	4322      	orrs	r2, r4
    2068:	0312      	lsls	r2, r2, #12
    206a:	0b12      	lsrs	r2, r2, #12
    206c:	4645      	mov	r5, r8
    206e:	4699      	mov	r9, r3
    2070:	4c43      	ldr	r4, [pc, #268]	; (2180 <__aeabi_dmul+0x4fc>)
    2072:	e66e      	b.n	1d52 <__aeabi_dmul+0xce>
    2074:	465b      	mov	r3, fp
    2076:	431a      	orrs	r2, r3
    2078:	0312      	lsls	r2, r2, #12
    207a:	0b12      	lsrs	r2, r2, #12
    207c:	4c40      	ldr	r4, [pc, #256]	; (2180 <__aeabi_dmul+0x4fc>)
    207e:	e668      	b.n	1d52 <__aeabi_dmul+0xce>
    2080:	0003      	movs	r3, r0
    2082:	4654      	mov	r4, sl
    2084:	3b28      	subs	r3, #40	; 0x28
    2086:	409c      	lsls	r4, r3
    2088:	2300      	movs	r3, #0
    208a:	e6b9      	b.n	1e00 <__aeabi_dmul+0x17c>
    208c:	f000 fc74 	bl	2978 <__clzsi2>
    2090:	3020      	adds	r0, #32
    2092:	e6a6      	b.n	1de2 <__aeabi_dmul+0x15e>
    2094:	0003      	movs	r3, r0
    2096:	3b28      	subs	r3, #40	; 0x28
    2098:	409f      	lsls	r7, r3
    209a:	2300      	movs	r3, #0
    209c:	46bb      	mov	fp, r7
    209e:	4699      	mov	r9, r3
    20a0:	e68a      	b.n	1db8 <__aeabi_dmul+0x134>
    20a2:	f000 fc69 	bl	2978 <__clzsi2>
    20a6:	3020      	adds	r0, #32
    20a8:	e674      	b.n	1d94 <__aeabi_dmul+0x110>
    20aa:	46b4      	mov	ip, r6
    20ac:	e7ad      	b.n	200a <__aeabi_dmul+0x386>
    20ae:	2501      	movs	r5, #1
    20b0:	1a2a      	subs	r2, r5, r0
    20b2:	2a38      	cmp	r2, #56	; 0x38
    20b4:	dd06      	ble.n	20c4 <__aeabi_dmul+0x440>
    20b6:	9b01      	ldr	r3, [sp, #4]
    20b8:	2400      	movs	r4, #0
    20ba:	401d      	ands	r5, r3
    20bc:	2300      	movs	r3, #0
    20be:	2200      	movs	r2, #0
    20c0:	4699      	mov	r9, r3
    20c2:	e646      	b.n	1d52 <__aeabi_dmul+0xce>
    20c4:	2a1f      	cmp	r2, #31
    20c6:	dc21      	bgt.n	210c <__aeabi_dmul+0x488>
    20c8:	2520      	movs	r5, #32
    20ca:	0020      	movs	r0, r4
    20cc:	1aad      	subs	r5, r5, r2
    20ce:	001e      	movs	r6, r3
    20d0:	40ab      	lsls	r3, r5
    20d2:	40a8      	lsls	r0, r5
    20d4:	40d6      	lsrs	r6, r2
    20d6:	1e5d      	subs	r5, r3, #1
    20d8:	41ab      	sbcs	r3, r5
    20da:	4330      	orrs	r0, r6
    20dc:	4318      	orrs	r0, r3
    20de:	40d4      	lsrs	r4, r2
    20e0:	0743      	lsls	r3, r0, #29
    20e2:	d009      	beq.n	20f8 <__aeabi_dmul+0x474>
    20e4:	230f      	movs	r3, #15
    20e6:	4003      	ands	r3, r0
    20e8:	2b04      	cmp	r3, #4
    20ea:	d005      	beq.n	20f8 <__aeabi_dmul+0x474>
    20ec:	0003      	movs	r3, r0
    20ee:	1d18      	adds	r0, r3, #4
    20f0:	4298      	cmp	r0, r3
    20f2:	419b      	sbcs	r3, r3
    20f4:	425b      	negs	r3, r3
    20f6:	18e4      	adds	r4, r4, r3
    20f8:	0223      	lsls	r3, r4, #8
    20fa:	d521      	bpl.n	2140 <__aeabi_dmul+0x4bc>
    20fc:	2501      	movs	r5, #1
    20fe:	9b01      	ldr	r3, [sp, #4]
    2100:	2401      	movs	r4, #1
    2102:	401d      	ands	r5, r3
    2104:	2300      	movs	r3, #0
    2106:	2200      	movs	r2, #0
    2108:	4699      	mov	r9, r3
    210a:	e622      	b.n	1d52 <__aeabi_dmul+0xce>
    210c:	251f      	movs	r5, #31
    210e:	0021      	movs	r1, r4
    2110:	426d      	negs	r5, r5
    2112:	1a28      	subs	r0, r5, r0
    2114:	40c1      	lsrs	r1, r0
    2116:	0008      	movs	r0, r1
    2118:	2a20      	cmp	r2, #32
    211a:	d01d      	beq.n	2158 <__aeabi_dmul+0x4d4>
    211c:	355f      	adds	r5, #95	; 0x5f
    211e:	1aaa      	subs	r2, r5, r2
    2120:	4094      	lsls	r4, r2
    2122:	4323      	orrs	r3, r4
    2124:	1e5c      	subs	r4, r3, #1
    2126:	41a3      	sbcs	r3, r4
    2128:	2507      	movs	r5, #7
    212a:	4303      	orrs	r3, r0
    212c:	401d      	ands	r5, r3
    212e:	2200      	movs	r2, #0
    2130:	2d00      	cmp	r5, #0
    2132:	d009      	beq.n	2148 <__aeabi_dmul+0x4c4>
    2134:	220f      	movs	r2, #15
    2136:	2400      	movs	r4, #0
    2138:	401a      	ands	r2, r3
    213a:	0018      	movs	r0, r3
    213c:	2a04      	cmp	r2, #4
    213e:	d1d6      	bne.n	20ee <__aeabi_dmul+0x46a>
    2140:	0003      	movs	r3, r0
    2142:	0765      	lsls	r5, r4, #29
    2144:	0264      	lsls	r4, r4, #9
    2146:	0b22      	lsrs	r2, r4, #12
    2148:	08db      	lsrs	r3, r3, #3
    214a:	432b      	orrs	r3, r5
    214c:	2501      	movs	r5, #1
    214e:	4699      	mov	r9, r3
    2150:	9b01      	ldr	r3, [sp, #4]
    2152:	2400      	movs	r4, #0
    2154:	401d      	ands	r5, r3
    2156:	e5fc      	b.n	1d52 <__aeabi_dmul+0xce>
    2158:	2400      	movs	r4, #0
    215a:	e7e2      	b.n	2122 <__aeabi_dmul+0x49e>
    215c:	2280      	movs	r2, #128	; 0x80
    215e:	2501      	movs	r5, #1
    2160:	0312      	lsls	r2, r2, #12
    2162:	4322      	orrs	r2, r4
    2164:	9901      	ldr	r1, [sp, #4]
    2166:	0312      	lsls	r2, r2, #12
    2168:	0b12      	lsrs	r2, r2, #12
    216a:	400d      	ands	r5, r1
    216c:	4699      	mov	r9, r3
    216e:	4c04      	ldr	r4, [pc, #16]	; (2180 <__aeabi_dmul+0x4fc>)
    2170:	e5ef      	b.n	1d52 <__aeabi_dmul+0xce>
    2172:	46c0      	nop			; (mov r8, r8)
    2174:	000003ff 	.word	0x000003ff
    2178:	feffffff 	.word	0xfeffffff
    217c:	000007fe 	.word	0x000007fe
    2180:	000007ff 	.word	0x000007ff

00002184 <__aeabi_dsub>:
    2184:	b5f0      	push	{r4, r5, r6, r7, lr}
    2186:	4646      	mov	r6, r8
    2188:	46d6      	mov	lr, sl
    218a:	464f      	mov	r7, r9
    218c:	030c      	lsls	r4, r1, #12
    218e:	b5c0      	push	{r6, r7, lr}
    2190:	0fcd      	lsrs	r5, r1, #31
    2192:	004e      	lsls	r6, r1, #1
    2194:	0a61      	lsrs	r1, r4, #9
    2196:	0f44      	lsrs	r4, r0, #29
    2198:	430c      	orrs	r4, r1
    219a:	00c1      	lsls	r1, r0, #3
    219c:	0058      	lsls	r0, r3, #1
    219e:	0d40      	lsrs	r0, r0, #21
    21a0:	4684      	mov	ip, r0
    21a2:	468a      	mov	sl, r1
    21a4:	000f      	movs	r7, r1
    21a6:	0319      	lsls	r1, r3, #12
    21a8:	0f50      	lsrs	r0, r2, #29
    21aa:	0a49      	lsrs	r1, r1, #9
    21ac:	4301      	orrs	r1, r0
    21ae:	48c6      	ldr	r0, [pc, #792]	; (24c8 <__aeabi_dsub+0x344>)
    21b0:	0d76      	lsrs	r6, r6, #21
    21b2:	46a8      	mov	r8, r5
    21b4:	0fdb      	lsrs	r3, r3, #31
    21b6:	00d2      	lsls	r2, r2, #3
    21b8:	4584      	cmp	ip, r0
    21ba:	d100      	bne.n	21be <__aeabi_dsub+0x3a>
    21bc:	e0d8      	b.n	2370 <__aeabi_dsub+0x1ec>
    21be:	2001      	movs	r0, #1
    21c0:	4043      	eors	r3, r0
    21c2:	42ab      	cmp	r3, r5
    21c4:	d100      	bne.n	21c8 <__aeabi_dsub+0x44>
    21c6:	e0a6      	b.n	2316 <__aeabi_dsub+0x192>
    21c8:	4660      	mov	r0, ip
    21ca:	1a35      	subs	r5, r6, r0
    21cc:	2d00      	cmp	r5, #0
    21ce:	dc00      	bgt.n	21d2 <__aeabi_dsub+0x4e>
    21d0:	e105      	b.n	23de <__aeabi_dsub+0x25a>
    21d2:	2800      	cmp	r0, #0
    21d4:	d110      	bne.n	21f8 <__aeabi_dsub+0x74>
    21d6:	000b      	movs	r3, r1
    21d8:	4313      	orrs	r3, r2
    21da:	d100      	bne.n	21de <__aeabi_dsub+0x5a>
    21dc:	e0d7      	b.n	238e <__aeabi_dsub+0x20a>
    21de:	1e6b      	subs	r3, r5, #1
    21e0:	2b00      	cmp	r3, #0
    21e2:	d000      	beq.n	21e6 <__aeabi_dsub+0x62>
    21e4:	e14b      	b.n	247e <__aeabi_dsub+0x2fa>
    21e6:	4653      	mov	r3, sl
    21e8:	1a9f      	subs	r7, r3, r2
    21ea:	45ba      	cmp	sl, r7
    21ec:	4180      	sbcs	r0, r0
    21ee:	1a64      	subs	r4, r4, r1
    21f0:	4240      	negs	r0, r0
    21f2:	1a24      	subs	r4, r4, r0
    21f4:	2601      	movs	r6, #1
    21f6:	e01e      	b.n	2236 <__aeabi_dsub+0xb2>
    21f8:	4bb3      	ldr	r3, [pc, #716]	; (24c8 <__aeabi_dsub+0x344>)
    21fa:	429e      	cmp	r6, r3
    21fc:	d048      	beq.n	2290 <__aeabi_dsub+0x10c>
    21fe:	2380      	movs	r3, #128	; 0x80
    2200:	041b      	lsls	r3, r3, #16
    2202:	4319      	orrs	r1, r3
    2204:	2d38      	cmp	r5, #56	; 0x38
    2206:	dd00      	ble.n	220a <__aeabi_dsub+0x86>
    2208:	e119      	b.n	243e <__aeabi_dsub+0x2ba>
    220a:	2d1f      	cmp	r5, #31
    220c:	dd00      	ble.n	2210 <__aeabi_dsub+0x8c>
    220e:	e14c      	b.n	24aa <__aeabi_dsub+0x326>
    2210:	2320      	movs	r3, #32
    2212:	000f      	movs	r7, r1
    2214:	1b5b      	subs	r3, r3, r5
    2216:	0010      	movs	r0, r2
    2218:	409a      	lsls	r2, r3
    221a:	409f      	lsls	r7, r3
    221c:	40e8      	lsrs	r0, r5
    221e:	1e53      	subs	r3, r2, #1
    2220:	419a      	sbcs	r2, r3
    2222:	40e9      	lsrs	r1, r5
    2224:	4307      	orrs	r7, r0
    2226:	4317      	orrs	r7, r2
    2228:	4653      	mov	r3, sl
    222a:	1bdf      	subs	r7, r3, r7
    222c:	1a61      	subs	r1, r4, r1
    222e:	45ba      	cmp	sl, r7
    2230:	41a4      	sbcs	r4, r4
    2232:	4264      	negs	r4, r4
    2234:	1b0c      	subs	r4, r1, r4
    2236:	0223      	lsls	r3, r4, #8
    2238:	d400      	bmi.n	223c <__aeabi_dsub+0xb8>
    223a:	e0c5      	b.n	23c8 <__aeabi_dsub+0x244>
    223c:	0264      	lsls	r4, r4, #9
    223e:	0a65      	lsrs	r5, r4, #9
    2240:	2d00      	cmp	r5, #0
    2242:	d100      	bne.n	2246 <__aeabi_dsub+0xc2>
    2244:	e0f6      	b.n	2434 <__aeabi_dsub+0x2b0>
    2246:	0028      	movs	r0, r5
    2248:	f000 fb96 	bl	2978 <__clzsi2>
    224c:	0003      	movs	r3, r0
    224e:	3b08      	subs	r3, #8
    2250:	2b1f      	cmp	r3, #31
    2252:	dd00      	ble.n	2256 <__aeabi_dsub+0xd2>
    2254:	e0e9      	b.n	242a <__aeabi_dsub+0x2a6>
    2256:	2220      	movs	r2, #32
    2258:	003c      	movs	r4, r7
    225a:	1ad2      	subs	r2, r2, r3
    225c:	409d      	lsls	r5, r3
    225e:	40d4      	lsrs	r4, r2
    2260:	409f      	lsls	r7, r3
    2262:	4325      	orrs	r5, r4
    2264:	429e      	cmp	r6, r3
    2266:	dd00      	ble.n	226a <__aeabi_dsub+0xe6>
    2268:	e0db      	b.n	2422 <__aeabi_dsub+0x29e>
    226a:	1b9e      	subs	r6, r3, r6
    226c:	1c73      	adds	r3, r6, #1
    226e:	2b1f      	cmp	r3, #31
    2270:	dd00      	ble.n	2274 <__aeabi_dsub+0xf0>
    2272:	e10a      	b.n	248a <__aeabi_dsub+0x306>
    2274:	2220      	movs	r2, #32
    2276:	0038      	movs	r0, r7
    2278:	1ad2      	subs	r2, r2, r3
    227a:	0029      	movs	r1, r5
    227c:	4097      	lsls	r7, r2
    227e:	002c      	movs	r4, r5
    2280:	4091      	lsls	r1, r2
    2282:	40d8      	lsrs	r0, r3
    2284:	1e7a      	subs	r2, r7, #1
    2286:	4197      	sbcs	r7, r2
    2288:	40dc      	lsrs	r4, r3
    228a:	2600      	movs	r6, #0
    228c:	4301      	orrs	r1, r0
    228e:	430f      	orrs	r7, r1
    2290:	077b      	lsls	r3, r7, #29
    2292:	d009      	beq.n	22a8 <__aeabi_dsub+0x124>
    2294:	230f      	movs	r3, #15
    2296:	403b      	ands	r3, r7
    2298:	2b04      	cmp	r3, #4
    229a:	d005      	beq.n	22a8 <__aeabi_dsub+0x124>
    229c:	1d3b      	adds	r3, r7, #4
    229e:	42bb      	cmp	r3, r7
    22a0:	41bf      	sbcs	r7, r7
    22a2:	427f      	negs	r7, r7
    22a4:	19e4      	adds	r4, r4, r7
    22a6:	001f      	movs	r7, r3
    22a8:	0223      	lsls	r3, r4, #8
    22aa:	d525      	bpl.n	22f8 <__aeabi_dsub+0x174>
    22ac:	4b86      	ldr	r3, [pc, #536]	; (24c8 <__aeabi_dsub+0x344>)
    22ae:	3601      	adds	r6, #1
    22b0:	429e      	cmp	r6, r3
    22b2:	d100      	bne.n	22b6 <__aeabi_dsub+0x132>
    22b4:	e0af      	b.n	2416 <__aeabi_dsub+0x292>
    22b6:	4b85      	ldr	r3, [pc, #532]	; (24cc <__aeabi_dsub+0x348>)
    22b8:	2501      	movs	r5, #1
    22ba:	401c      	ands	r4, r3
    22bc:	4643      	mov	r3, r8
    22be:	0762      	lsls	r2, r4, #29
    22c0:	08ff      	lsrs	r7, r7, #3
    22c2:	0264      	lsls	r4, r4, #9
    22c4:	0576      	lsls	r6, r6, #21
    22c6:	4317      	orrs	r7, r2
    22c8:	0b24      	lsrs	r4, r4, #12
    22ca:	0d76      	lsrs	r6, r6, #21
    22cc:	401d      	ands	r5, r3
    22ce:	2100      	movs	r1, #0
    22d0:	0324      	lsls	r4, r4, #12
    22d2:	0b23      	lsrs	r3, r4, #12
    22d4:	0d0c      	lsrs	r4, r1, #20
    22d6:	4a7e      	ldr	r2, [pc, #504]	; (24d0 <__aeabi_dsub+0x34c>)
    22d8:	0524      	lsls	r4, r4, #20
    22da:	431c      	orrs	r4, r3
    22dc:	4014      	ands	r4, r2
    22de:	0533      	lsls	r3, r6, #20
    22e0:	4323      	orrs	r3, r4
    22e2:	005b      	lsls	r3, r3, #1
    22e4:	07ed      	lsls	r5, r5, #31
    22e6:	085b      	lsrs	r3, r3, #1
    22e8:	432b      	orrs	r3, r5
    22ea:	0038      	movs	r0, r7
    22ec:	0019      	movs	r1, r3
    22ee:	bc1c      	pop	{r2, r3, r4}
    22f0:	4690      	mov	r8, r2
    22f2:	4699      	mov	r9, r3
    22f4:	46a2      	mov	sl, r4
    22f6:	bdf0      	pop	{r4, r5, r6, r7, pc}
    22f8:	2501      	movs	r5, #1
    22fa:	4643      	mov	r3, r8
    22fc:	0762      	lsls	r2, r4, #29
    22fe:	08ff      	lsrs	r7, r7, #3
    2300:	4317      	orrs	r7, r2
    2302:	08e4      	lsrs	r4, r4, #3
    2304:	401d      	ands	r5, r3
    2306:	4b70      	ldr	r3, [pc, #448]	; (24c8 <__aeabi_dsub+0x344>)
    2308:	429e      	cmp	r6, r3
    230a:	d036      	beq.n	237a <__aeabi_dsub+0x1f6>
    230c:	0324      	lsls	r4, r4, #12
    230e:	0576      	lsls	r6, r6, #21
    2310:	0b24      	lsrs	r4, r4, #12
    2312:	0d76      	lsrs	r6, r6, #21
    2314:	e7db      	b.n	22ce <__aeabi_dsub+0x14a>
    2316:	4663      	mov	r3, ip
    2318:	1af3      	subs	r3, r6, r3
    231a:	2b00      	cmp	r3, #0
    231c:	dc00      	bgt.n	2320 <__aeabi_dsub+0x19c>
    231e:	e094      	b.n	244a <__aeabi_dsub+0x2c6>
    2320:	4660      	mov	r0, ip
    2322:	2800      	cmp	r0, #0
    2324:	d035      	beq.n	2392 <__aeabi_dsub+0x20e>
    2326:	4868      	ldr	r0, [pc, #416]	; (24c8 <__aeabi_dsub+0x344>)
    2328:	4286      	cmp	r6, r0
    232a:	d0b1      	beq.n	2290 <__aeabi_dsub+0x10c>
    232c:	2780      	movs	r7, #128	; 0x80
    232e:	043f      	lsls	r7, r7, #16
    2330:	4339      	orrs	r1, r7
    2332:	2b38      	cmp	r3, #56	; 0x38
    2334:	dc00      	bgt.n	2338 <__aeabi_dsub+0x1b4>
    2336:	e0fd      	b.n	2534 <__aeabi_dsub+0x3b0>
    2338:	430a      	orrs	r2, r1
    233a:	0017      	movs	r7, r2
    233c:	2100      	movs	r1, #0
    233e:	1e7a      	subs	r2, r7, #1
    2340:	4197      	sbcs	r7, r2
    2342:	4457      	add	r7, sl
    2344:	4557      	cmp	r7, sl
    2346:	4180      	sbcs	r0, r0
    2348:	1909      	adds	r1, r1, r4
    234a:	4244      	negs	r4, r0
    234c:	190c      	adds	r4, r1, r4
    234e:	0223      	lsls	r3, r4, #8
    2350:	d53a      	bpl.n	23c8 <__aeabi_dsub+0x244>
    2352:	4b5d      	ldr	r3, [pc, #372]	; (24c8 <__aeabi_dsub+0x344>)
    2354:	3601      	adds	r6, #1
    2356:	429e      	cmp	r6, r3
    2358:	d100      	bne.n	235c <__aeabi_dsub+0x1d8>
    235a:	e14b      	b.n	25f4 <__aeabi_dsub+0x470>
    235c:	2201      	movs	r2, #1
    235e:	4b5b      	ldr	r3, [pc, #364]	; (24cc <__aeabi_dsub+0x348>)
    2360:	401c      	ands	r4, r3
    2362:	087b      	lsrs	r3, r7, #1
    2364:	4017      	ands	r7, r2
    2366:	431f      	orrs	r7, r3
    2368:	07e2      	lsls	r2, r4, #31
    236a:	4317      	orrs	r7, r2
    236c:	0864      	lsrs	r4, r4, #1
    236e:	e78f      	b.n	2290 <__aeabi_dsub+0x10c>
    2370:	0008      	movs	r0, r1
    2372:	4310      	orrs	r0, r2
    2374:	d000      	beq.n	2378 <__aeabi_dsub+0x1f4>
    2376:	e724      	b.n	21c2 <__aeabi_dsub+0x3e>
    2378:	e721      	b.n	21be <__aeabi_dsub+0x3a>
    237a:	0023      	movs	r3, r4
    237c:	433b      	orrs	r3, r7
    237e:	d100      	bne.n	2382 <__aeabi_dsub+0x1fe>
    2380:	e1b9      	b.n	26f6 <__aeabi_dsub+0x572>
    2382:	2280      	movs	r2, #128	; 0x80
    2384:	0312      	lsls	r2, r2, #12
    2386:	4314      	orrs	r4, r2
    2388:	0324      	lsls	r4, r4, #12
    238a:	0b24      	lsrs	r4, r4, #12
    238c:	e79f      	b.n	22ce <__aeabi_dsub+0x14a>
    238e:	002e      	movs	r6, r5
    2390:	e77e      	b.n	2290 <__aeabi_dsub+0x10c>
    2392:	0008      	movs	r0, r1
    2394:	4310      	orrs	r0, r2
    2396:	d100      	bne.n	239a <__aeabi_dsub+0x216>
    2398:	e0ca      	b.n	2530 <__aeabi_dsub+0x3ac>
    239a:	1e58      	subs	r0, r3, #1
    239c:	4684      	mov	ip, r0
    239e:	2800      	cmp	r0, #0
    23a0:	d000      	beq.n	23a4 <__aeabi_dsub+0x220>
    23a2:	e0e7      	b.n	2574 <__aeabi_dsub+0x3f0>
    23a4:	4452      	add	r2, sl
    23a6:	4552      	cmp	r2, sl
    23a8:	4180      	sbcs	r0, r0
    23aa:	1864      	adds	r4, r4, r1
    23ac:	4240      	negs	r0, r0
    23ae:	1824      	adds	r4, r4, r0
    23b0:	0017      	movs	r7, r2
    23b2:	2601      	movs	r6, #1
    23b4:	0223      	lsls	r3, r4, #8
    23b6:	d507      	bpl.n	23c8 <__aeabi_dsub+0x244>
    23b8:	2602      	movs	r6, #2
    23ba:	e7cf      	b.n	235c <__aeabi_dsub+0x1d8>
    23bc:	4664      	mov	r4, ip
    23be:	432c      	orrs	r4, r5
    23c0:	d100      	bne.n	23c4 <__aeabi_dsub+0x240>
    23c2:	e1b3      	b.n	272c <__aeabi_dsub+0x5a8>
    23c4:	002c      	movs	r4, r5
    23c6:	4667      	mov	r7, ip
    23c8:	077b      	lsls	r3, r7, #29
    23ca:	d000      	beq.n	23ce <__aeabi_dsub+0x24a>
    23cc:	e762      	b.n	2294 <__aeabi_dsub+0x110>
    23ce:	0763      	lsls	r3, r4, #29
    23d0:	08ff      	lsrs	r7, r7, #3
    23d2:	431f      	orrs	r7, r3
    23d4:	2501      	movs	r5, #1
    23d6:	4643      	mov	r3, r8
    23d8:	08e4      	lsrs	r4, r4, #3
    23da:	401d      	ands	r5, r3
    23dc:	e793      	b.n	2306 <__aeabi_dsub+0x182>
    23de:	2d00      	cmp	r5, #0
    23e0:	d178      	bne.n	24d4 <__aeabi_dsub+0x350>
    23e2:	1c75      	adds	r5, r6, #1
    23e4:	056d      	lsls	r5, r5, #21
    23e6:	0d6d      	lsrs	r5, r5, #21
    23e8:	2d01      	cmp	r5, #1
    23ea:	dc00      	bgt.n	23ee <__aeabi_dsub+0x26a>
    23ec:	e0f2      	b.n	25d4 <__aeabi_dsub+0x450>
    23ee:	4650      	mov	r0, sl
    23f0:	1a80      	subs	r0, r0, r2
    23f2:	4582      	cmp	sl, r0
    23f4:	41bf      	sbcs	r7, r7
    23f6:	1a65      	subs	r5, r4, r1
    23f8:	427f      	negs	r7, r7
    23fa:	1bed      	subs	r5, r5, r7
    23fc:	4684      	mov	ip, r0
    23fe:	0228      	lsls	r0, r5, #8
    2400:	d400      	bmi.n	2404 <__aeabi_dsub+0x280>
    2402:	e08c      	b.n	251e <__aeabi_dsub+0x39a>
    2404:	4650      	mov	r0, sl
    2406:	1a17      	subs	r7, r2, r0
    2408:	42ba      	cmp	r2, r7
    240a:	4192      	sbcs	r2, r2
    240c:	1b0c      	subs	r4, r1, r4
    240e:	4255      	negs	r5, r2
    2410:	1b65      	subs	r5, r4, r5
    2412:	4698      	mov	r8, r3
    2414:	e714      	b.n	2240 <__aeabi_dsub+0xbc>
    2416:	2501      	movs	r5, #1
    2418:	4643      	mov	r3, r8
    241a:	2400      	movs	r4, #0
    241c:	401d      	ands	r5, r3
    241e:	2700      	movs	r7, #0
    2420:	e755      	b.n	22ce <__aeabi_dsub+0x14a>
    2422:	4c2a      	ldr	r4, [pc, #168]	; (24cc <__aeabi_dsub+0x348>)
    2424:	1af6      	subs	r6, r6, r3
    2426:	402c      	ands	r4, r5
    2428:	e732      	b.n	2290 <__aeabi_dsub+0x10c>
    242a:	003d      	movs	r5, r7
    242c:	3828      	subs	r0, #40	; 0x28
    242e:	4085      	lsls	r5, r0
    2430:	2700      	movs	r7, #0
    2432:	e717      	b.n	2264 <__aeabi_dsub+0xe0>
    2434:	0038      	movs	r0, r7
    2436:	f000 fa9f 	bl	2978 <__clzsi2>
    243a:	3020      	adds	r0, #32
    243c:	e706      	b.n	224c <__aeabi_dsub+0xc8>
    243e:	430a      	orrs	r2, r1
    2440:	0017      	movs	r7, r2
    2442:	2100      	movs	r1, #0
    2444:	1e7a      	subs	r2, r7, #1
    2446:	4197      	sbcs	r7, r2
    2448:	e6ee      	b.n	2228 <__aeabi_dsub+0xa4>
    244a:	2b00      	cmp	r3, #0
    244c:	d000      	beq.n	2450 <__aeabi_dsub+0x2cc>
    244e:	e0e5      	b.n	261c <__aeabi_dsub+0x498>
    2450:	1c73      	adds	r3, r6, #1
    2452:	469c      	mov	ip, r3
    2454:	055b      	lsls	r3, r3, #21
    2456:	0d5b      	lsrs	r3, r3, #21
    2458:	2b01      	cmp	r3, #1
    245a:	dc00      	bgt.n	245e <__aeabi_dsub+0x2da>
    245c:	e09f      	b.n	259e <__aeabi_dsub+0x41a>
    245e:	4b1a      	ldr	r3, [pc, #104]	; (24c8 <__aeabi_dsub+0x344>)
    2460:	459c      	cmp	ip, r3
    2462:	d100      	bne.n	2466 <__aeabi_dsub+0x2e2>
    2464:	e0c5      	b.n	25f2 <__aeabi_dsub+0x46e>
    2466:	4452      	add	r2, sl
    2468:	4552      	cmp	r2, sl
    246a:	4180      	sbcs	r0, r0
    246c:	1864      	adds	r4, r4, r1
    246e:	4240      	negs	r0, r0
    2470:	1824      	adds	r4, r4, r0
    2472:	07e7      	lsls	r7, r4, #31
    2474:	0852      	lsrs	r2, r2, #1
    2476:	4317      	orrs	r7, r2
    2478:	0864      	lsrs	r4, r4, #1
    247a:	4666      	mov	r6, ip
    247c:	e708      	b.n	2290 <__aeabi_dsub+0x10c>
    247e:	4812      	ldr	r0, [pc, #72]	; (24c8 <__aeabi_dsub+0x344>)
    2480:	4285      	cmp	r5, r0
    2482:	d100      	bne.n	2486 <__aeabi_dsub+0x302>
    2484:	e085      	b.n	2592 <__aeabi_dsub+0x40e>
    2486:	001d      	movs	r5, r3
    2488:	e6bc      	b.n	2204 <__aeabi_dsub+0x80>
    248a:	0029      	movs	r1, r5
    248c:	3e1f      	subs	r6, #31
    248e:	40f1      	lsrs	r1, r6
    2490:	2b20      	cmp	r3, #32
    2492:	d100      	bne.n	2496 <__aeabi_dsub+0x312>
    2494:	e07f      	b.n	2596 <__aeabi_dsub+0x412>
    2496:	2240      	movs	r2, #64	; 0x40
    2498:	1ad3      	subs	r3, r2, r3
    249a:	409d      	lsls	r5, r3
    249c:	432f      	orrs	r7, r5
    249e:	1e7d      	subs	r5, r7, #1
    24a0:	41af      	sbcs	r7, r5
    24a2:	2400      	movs	r4, #0
    24a4:	430f      	orrs	r7, r1
    24a6:	2600      	movs	r6, #0
    24a8:	e78e      	b.n	23c8 <__aeabi_dsub+0x244>
    24aa:	002b      	movs	r3, r5
    24ac:	000f      	movs	r7, r1
    24ae:	3b20      	subs	r3, #32
    24b0:	40df      	lsrs	r7, r3
    24b2:	2d20      	cmp	r5, #32
    24b4:	d071      	beq.n	259a <__aeabi_dsub+0x416>
    24b6:	2340      	movs	r3, #64	; 0x40
    24b8:	1b5d      	subs	r5, r3, r5
    24ba:	40a9      	lsls	r1, r5
    24bc:	430a      	orrs	r2, r1
    24be:	1e51      	subs	r1, r2, #1
    24c0:	418a      	sbcs	r2, r1
    24c2:	2100      	movs	r1, #0
    24c4:	4317      	orrs	r7, r2
    24c6:	e6af      	b.n	2228 <__aeabi_dsub+0xa4>
    24c8:	000007ff 	.word	0x000007ff
    24cc:	ff7fffff 	.word	0xff7fffff
    24d0:	800fffff 	.word	0x800fffff
    24d4:	2e00      	cmp	r6, #0
    24d6:	d03e      	beq.n	2556 <__aeabi_dsub+0x3d2>
    24d8:	4eb3      	ldr	r6, [pc, #716]	; (27a8 <__aeabi_dsub+0x624>)
    24da:	45b4      	cmp	ip, r6
    24dc:	d045      	beq.n	256a <__aeabi_dsub+0x3e6>
    24de:	2680      	movs	r6, #128	; 0x80
    24e0:	0436      	lsls	r6, r6, #16
    24e2:	426d      	negs	r5, r5
    24e4:	4334      	orrs	r4, r6
    24e6:	2d38      	cmp	r5, #56	; 0x38
    24e8:	dd00      	ble.n	24ec <__aeabi_dsub+0x368>
    24ea:	e0a8      	b.n	263e <__aeabi_dsub+0x4ba>
    24ec:	2d1f      	cmp	r5, #31
    24ee:	dd00      	ble.n	24f2 <__aeabi_dsub+0x36e>
    24f0:	e11f      	b.n	2732 <__aeabi_dsub+0x5ae>
    24f2:	2620      	movs	r6, #32
    24f4:	0027      	movs	r7, r4
    24f6:	4650      	mov	r0, sl
    24f8:	1b76      	subs	r6, r6, r5
    24fa:	40b7      	lsls	r7, r6
    24fc:	40e8      	lsrs	r0, r5
    24fe:	4307      	orrs	r7, r0
    2500:	4650      	mov	r0, sl
    2502:	40b0      	lsls	r0, r6
    2504:	1e46      	subs	r6, r0, #1
    2506:	41b0      	sbcs	r0, r6
    2508:	40ec      	lsrs	r4, r5
    250a:	4338      	orrs	r0, r7
    250c:	1a17      	subs	r7, r2, r0
    250e:	42ba      	cmp	r2, r7
    2510:	4192      	sbcs	r2, r2
    2512:	1b0c      	subs	r4, r1, r4
    2514:	4252      	negs	r2, r2
    2516:	1aa4      	subs	r4, r4, r2
    2518:	4666      	mov	r6, ip
    251a:	4698      	mov	r8, r3
    251c:	e68b      	b.n	2236 <__aeabi_dsub+0xb2>
    251e:	4664      	mov	r4, ip
    2520:	4667      	mov	r7, ip
    2522:	432c      	orrs	r4, r5
    2524:	d000      	beq.n	2528 <__aeabi_dsub+0x3a4>
    2526:	e68b      	b.n	2240 <__aeabi_dsub+0xbc>
    2528:	2500      	movs	r5, #0
    252a:	2600      	movs	r6, #0
    252c:	2700      	movs	r7, #0
    252e:	e6ea      	b.n	2306 <__aeabi_dsub+0x182>
    2530:	001e      	movs	r6, r3
    2532:	e6ad      	b.n	2290 <__aeabi_dsub+0x10c>
    2534:	2b1f      	cmp	r3, #31
    2536:	dc60      	bgt.n	25fa <__aeabi_dsub+0x476>
    2538:	2720      	movs	r7, #32
    253a:	1af8      	subs	r0, r7, r3
    253c:	000f      	movs	r7, r1
    253e:	4684      	mov	ip, r0
    2540:	4087      	lsls	r7, r0
    2542:	0010      	movs	r0, r2
    2544:	40d8      	lsrs	r0, r3
    2546:	4307      	orrs	r7, r0
    2548:	4660      	mov	r0, ip
    254a:	4082      	lsls	r2, r0
    254c:	1e50      	subs	r0, r2, #1
    254e:	4182      	sbcs	r2, r0
    2550:	40d9      	lsrs	r1, r3
    2552:	4317      	orrs	r7, r2
    2554:	e6f5      	b.n	2342 <__aeabi_dsub+0x1be>
    2556:	0026      	movs	r6, r4
    2558:	4650      	mov	r0, sl
    255a:	4306      	orrs	r6, r0
    255c:	d005      	beq.n	256a <__aeabi_dsub+0x3e6>
    255e:	43ed      	mvns	r5, r5
    2560:	2d00      	cmp	r5, #0
    2562:	d0d3      	beq.n	250c <__aeabi_dsub+0x388>
    2564:	4e90      	ldr	r6, [pc, #576]	; (27a8 <__aeabi_dsub+0x624>)
    2566:	45b4      	cmp	ip, r6
    2568:	d1bd      	bne.n	24e6 <__aeabi_dsub+0x362>
    256a:	000c      	movs	r4, r1
    256c:	0017      	movs	r7, r2
    256e:	4666      	mov	r6, ip
    2570:	4698      	mov	r8, r3
    2572:	e68d      	b.n	2290 <__aeabi_dsub+0x10c>
    2574:	488c      	ldr	r0, [pc, #560]	; (27a8 <__aeabi_dsub+0x624>)
    2576:	4283      	cmp	r3, r0
    2578:	d00b      	beq.n	2592 <__aeabi_dsub+0x40e>
    257a:	4663      	mov	r3, ip
    257c:	e6d9      	b.n	2332 <__aeabi_dsub+0x1ae>
    257e:	2d00      	cmp	r5, #0
    2580:	d000      	beq.n	2584 <__aeabi_dsub+0x400>
    2582:	e096      	b.n	26b2 <__aeabi_dsub+0x52e>
    2584:	0008      	movs	r0, r1
    2586:	4310      	orrs	r0, r2
    2588:	d100      	bne.n	258c <__aeabi_dsub+0x408>
    258a:	e0e2      	b.n	2752 <__aeabi_dsub+0x5ce>
    258c:	000c      	movs	r4, r1
    258e:	0017      	movs	r7, r2
    2590:	4698      	mov	r8, r3
    2592:	4e85      	ldr	r6, [pc, #532]	; (27a8 <__aeabi_dsub+0x624>)
    2594:	e67c      	b.n	2290 <__aeabi_dsub+0x10c>
    2596:	2500      	movs	r5, #0
    2598:	e780      	b.n	249c <__aeabi_dsub+0x318>
    259a:	2100      	movs	r1, #0
    259c:	e78e      	b.n	24bc <__aeabi_dsub+0x338>
    259e:	0023      	movs	r3, r4
    25a0:	4650      	mov	r0, sl
    25a2:	4303      	orrs	r3, r0
    25a4:	2e00      	cmp	r6, #0
    25a6:	d000      	beq.n	25aa <__aeabi_dsub+0x426>
    25a8:	e0a8      	b.n	26fc <__aeabi_dsub+0x578>
    25aa:	2b00      	cmp	r3, #0
    25ac:	d100      	bne.n	25b0 <__aeabi_dsub+0x42c>
    25ae:	e0de      	b.n	276e <__aeabi_dsub+0x5ea>
    25b0:	000b      	movs	r3, r1
    25b2:	4313      	orrs	r3, r2
    25b4:	d100      	bne.n	25b8 <__aeabi_dsub+0x434>
    25b6:	e66b      	b.n	2290 <__aeabi_dsub+0x10c>
    25b8:	4452      	add	r2, sl
    25ba:	4552      	cmp	r2, sl
    25bc:	4180      	sbcs	r0, r0
    25be:	1864      	adds	r4, r4, r1
    25c0:	4240      	negs	r0, r0
    25c2:	1824      	adds	r4, r4, r0
    25c4:	0017      	movs	r7, r2
    25c6:	0223      	lsls	r3, r4, #8
    25c8:	d400      	bmi.n	25cc <__aeabi_dsub+0x448>
    25ca:	e6fd      	b.n	23c8 <__aeabi_dsub+0x244>
    25cc:	4b77      	ldr	r3, [pc, #476]	; (27ac <__aeabi_dsub+0x628>)
    25ce:	4666      	mov	r6, ip
    25d0:	401c      	ands	r4, r3
    25d2:	e65d      	b.n	2290 <__aeabi_dsub+0x10c>
    25d4:	0025      	movs	r5, r4
    25d6:	4650      	mov	r0, sl
    25d8:	4305      	orrs	r5, r0
    25da:	2e00      	cmp	r6, #0
    25dc:	d1cf      	bne.n	257e <__aeabi_dsub+0x3fa>
    25de:	2d00      	cmp	r5, #0
    25e0:	d14f      	bne.n	2682 <__aeabi_dsub+0x4fe>
    25e2:	000c      	movs	r4, r1
    25e4:	4314      	orrs	r4, r2
    25e6:	d100      	bne.n	25ea <__aeabi_dsub+0x466>
    25e8:	e0a0      	b.n	272c <__aeabi_dsub+0x5a8>
    25ea:	000c      	movs	r4, r1
    25ec:	0017      	movs	r7, r2
    25ee:	4698      	mov	r8, r3
    25f0:	e64e      	b.n	2290 <__aeabi_dsub+0x10c>
    25f2:	4666      	mov	r6, ip
    25f4:	2400      	movs	r4, #0
    25f6:	2700      	movs	r7, #0
    25f8:	e685      	b.n	2306 <__aeabi_dsub+0x182>
    25fa:	001f      	movs	r7, r3
    25fc:	0008      	movs	r0, r1
    25fe:	3f20      	subs	r7, #32
    2600:	40f8      	lsrs	r0, r7
    2602:	0007      	movs	r7, r0
    2604:	2b20      	cmp	r3, #32
    2606:	d100      	bne.n	260a <__aeabi_dsub+0x486>
    2608:	e08e      	b.n	2728 <__aeabi_dsub+0x5a4>
    260a:	2040      	movs	r0, #64	; 0x40
    260c:	1ac3      	subs	r3, r0, r3
    260e:	4099      	lsls	r1, r3
    2610:	430a      	orrs	r2, r1
    2612:	1e51      	subs	r1, r2, #1
    2614:	418a      	sbcs	r2, r1
    2616:	2100      	movs	r1, #0
    2618:	4317      	orrs	r7, r2
    261a:	e692      	b.n	2342 <__aeabi_dsub+0x1be>
    261c:	2e00      	cmp	r6, #0
    261e:	d114      	bne.n	264a <__aeabi_dsub+0x4c6>
    2620:	0026      	movs	r6, r4
    2622:	4650      	mov	r0, sl
    2624:	4306      	orrs	r6, r0
    2626:	d062      	beq.n	26ee <__aeabi_dsub+0x56a>
    2628:	43db      	mvns	r3, r3
    262a:	2b00      	cmp	r3, #0
    262c:	d15c      	bne.n	26e8 <__aeabi_dsub+0x564>
    262e:	1887      	adds	r7, r0, r2
    2630:	4297      	cmp	r7, r2
    2632:	4192      	sbcs	r2, r2
    2634:	1864      	adds	r4, r4, r1
    2636:	4252      	negs	r2, r2
    2638:	18a4      	adds	r4, r4, r2
    263a:	4666      	mov	r6, ip
    263c:	e687      	b.n	234e <__aeabi_dsub+0x1ca>
    263e:	4650      	mov	r0, sl
    2640:	4320      	orrs	r0, r4
    2642:	1e44      	subs	r4, r0, #1
    2644:	41a0      	sbcs	r0, r4
    2646:	2400      	movs	r4, #0
    2648:	e760      	b.n	250c <__aeabi_dsub+0x388>
    264a:	4e57      	ldr	r6, [pc, #348]	; (27a8 <__aeabi_dsub+0x624>)
    264c:	45b4      	cmp	ip, r6
    264e:	d04e      	beq.n	26ee <__aeabi_dsub+0x56a>
    2650:	2680      	movs	r6, #128	; 0x80
    2652:	0436      	lsls	r6, r6, #16
    2654:	425b      	negs	r3, r3
    2656:	4334      	orrs	r4, r6
    2658:	2b38      	cmp	r3, #56	; 0x38
    265a:	dd00      	ble.n	265e <__aeabi_dsub+0x4da>
    265c:	e07f      	b.n	275e <__aeabi_dsub+0x5da>
    265e:	2b1f      	cmp	r3, #31
    2660:	dd00      	ble.n	2664 <__aeabi_dsub+0x4e0>
    2662:	e08b      	b.n	277c <__aeabi_dsub+0x5f8>
    2664:	2620      	movs	r6, #32
    2666:	0027      	movs	r7, r4
    2668:	4650      	mov	r0, sl
    266a:	1af6      	subs	r6, r6, r3
    266c:	40b7      	lsls	r7, r6
    266e:	40d8      	lsrs	r0, r3
    2670:	4307      	orrs	r7, r0
    2672:	4650      	mov	r0, sl
    2674:	40b0      	lsls	r0, r6
    2676:	1e46      	subs	r6, r0, #1
    2678:	41b0      	sbcs	r0, r6
    267a:	4307      	orrs	r7, r0
    267c:	40dc      	lsrs	r4, r3
    267e:	18bf      	adds	r7, r7, r2
    2680:	e7d6      	b.n	2630 <__aeabi_dsub+0x4ac>
    2682:	000d      	movs	r5, r1
    2684:	4315      	orrs	r5, r2
    2686:	d100      	bne.n	268a <__aeabi_dsub+0x506>
    2688:	e602      	b.n	2290 <__aeabi_dsub+0x10c>
    268a:	4650      	mov	r0, sl
    268c:	1a80      	subs	r0, r0, r2
    268e:	4582      	cmp	sl, r0
    2690:	41bf      	sbcs	r7, r7
    2692:	1a65      	subs	r5, r4, r1
    2694:	427f      	negs	r7, r7
    2696:	1bed      	subs	r5, r5, r7
    2698:	4684      	mov	ip, r0
    269a:	0228      	lsls	r0, r5, #8
    269c:	d400      	bmi.n	26a0 <__aeabi_dsub+0x51c>
    269e:	e68d      	b.n	23bc <__aeabi_dsub+0x238>
    26a0:	4650      	mov	r0, sl
    26a2:	1a17      	subs	r7, r2, r0
    26a4:	42ba      	cmp	r2, r7
    26a6:	4192      	sbcs	r2, r2
    26a8:	1b0c      	subs	r4, r1, r4
    26aa:	4252      	negs	r2, r2
    26ac:	1aa4      	subs	r4, r4, r2
    26ae:	4698      	mov	r8, r3
    26b0:	e5ee      	b.n	2290 <__aeabi_dsub+0x10c>
    26b2:	000d      	movs	r5, r1
    26b4:	4315      	orrs	r5, r2
    26b6:	d100      	bne.n	26ba <__aeabi_dsub+0x536>
    26b8:	e76b      	b.n	2592 <__aeabi_dsub+0x40e>
    26ba:	4650      	mov	r0, sl
    26bc:	0767      	lsls	r7, r4, #29
    26be:	08c0      	lsrs	r0, r0, #3
    26c0:	4307      	orrs	r7, r0
    26c2:	2080      	movs	r0, #128	; 0x80
    26c4:	08e4      	lsrs	r4, r4, #3
    26c6:	0300      	lsls	r0, r0, #12
    26c8:	4204      	tst	r4, r0
    26ca:	d007      	beq.n	26dc <__aeabi_dsub+0x558>
    26cc:	08cd      	lsrs	r5, r1, #3
    26ce:	4205      	tst	r5, r0
    26d0:	d104      	bne.n	26dc <__aeabi_dsub+0x558>
    26d2:	002c      	movs	r4, r5
    26d4:	4698      	mov	r8, r3
    26d6:	08d7      	lsrs	r7, r2, #3
    26d8:	0749      	lsls	r1, r1, #29
    26da:	430f      	orrs	r7, r1
    26dc:	0f7b      	lsrs	r3, r7, #29
    26de:	00e4      	lsls	r4, r4, #3
    26e0:	431c      	orrs	r4, r3
    26e2:	00ff      	lsls	r7, r7, #3
    26e4:	4e30      	ldr	r6, [pc, #192]	; (27a8 <__aeabi_dsub+0x624>)
    26e6:	e5d3      	b.n	2290 <__aeabi_dsub+0x10c>
    26e8:	4e2f      	ldr	r6, [pc, #188]	; (27a8 <__aeabi_dsub+0x624>)
    26ea:	45b4      	cmp	ip, r6
    26ec:	d1b4      	bne.n	2658 <__aeabi_dsub+0x4d4>
    26ee:	000c      	movs	r4, r1
    26f0:	0017      	movs	r7, r2
    26f2:	4666      	mov	r6, ip
    26f4:	e5cc      	b.n	2290 <__aeabi_dsub+0x10c>
    26f6:	2700      	movs	r7, #0
    26f8:	2400      	movs	r4, #0
    26fa:	e5e8      	b.n	22ce <__aeabi_dsub+0x14a>
    26fc:	2b00      	cmp	r3, #0
    26fe:	d039      	beq.n	2774 <__aeabi_dsub+0x5f0>
    2700:	000b      	movs	r3, r1
    2702:	4313      	orrs	r3, r2
    2704:	d100      	bne.n	2708 <__aeabi_dsub+0x584>
    2706:	e744      	b.n	2592 <__aeabi_dsub+0x40e>
    2708:	08c0      	lsrs	r0, r0, #3
    270a:	0767      	lsls	r7, r4, #29
    270c:	4307      	orrs	r7, r0
    270e:	2080      	movs	r0, #128	; 0x80
    2710:	08e4      	lsrs	r4, r4, #3
    2712:	0300      	lsls	r0, r0, #12
    2714:	4204      	tst	r4, r0
    2716:	d0e1      	beq.n	26dc <__aeabi_dsub+0x558>
    2718:	08cb      	lsrs	r3, r1, #3
    271a:	4203      	tst	r3, r0
    271c:	d1de      	bne.n	26dc <__aeabi_dsub+0x558>
    271e:	08d7      	lsrs	r7, r2, #3
    2720:	0749      	lsls	r1, r1, #29
    2722:	430f      	orrs	r7, r1
    2724:	001c      	movs	r4, r3
    2726:	e7d9      	b.n	26dc <__aeabi_dsub+0x558>
    2728:	2100      	movs	r1, #0
    272a:	e771      	b.n	2610 <__aeabi_dsub+0x48c>
    272c:	2500      	movs	r5, #0
    272e:	2700      	movs	r7, #0
    2730:	e5e9      	b.n	2306 <__aeabi_dsub+0x182>
    2732:	002e      	movs	r6, r5
    2734:	0027      	movs	r7, r4
    2736:	3e20      	subs	r6, #32
    2738:	40f7      	lsrs	r7, r6
    273a:	2d20      	cmp	r5, #32
    273c:	d02f      	beq.n	279e <__aeabi_dsub+0x61a>
    273e:	2640      	movs	r6, #64	; 0x40
    2740:	1b75      	subs	r5, r6, r5
    2742:	40ac      	lsls	r4, r5
    2744:	4650      	mov	r0, sl
    2746:	4320      	orrs	r0, r4
    2748:	1e44      	subs	r4, r0, #1
    274a:	41a0      	sbcs	r0, r4
    274c:	2400      	movs	r4, #0
    274e:	4338      	orrs	r0, r7
    2750:	e6dc      	b.n	250c <__aeabi_dsub+0x388>
    2752:	2480      	movs	r4, #128	; 0x80
    2754:	2500      	movs	r5, #0
    2756:	0324      	lsls	r4, r4, #12
    2758:	4e13      	ldr	r6, [pc, #76]	; (27a8 <__aeabi_dsub+0x624>)
    275a:	2700      	movs	r7, #0
    275c:	e5d3      	b.n	2306 <__aeabi_dsub+0x182>
    275e:	4650      	mov	r0, sl
    2760:	4320      	orrs	r0, r4
    2762:	0007      	movs	r7, r0
    2764:	1e78      	subs	r0, r7, #1
    2766:	4187      	sbcs	r7, r0
    2768:	2400      	movs	r4, #0
    276a:	18bf      	adds	r7, r7, r2
    276c:	e760      	b.n	2630 <__aeabi_dsub+0x4ac>
    276e:	000c      	movs	r4, r1
    2770:	0017      	movs	r7, r2
    2772:	e58d      	b.n	2290 <__aeabi_dsub+0x10c>
    2774:	000c      	movs	r4, r1
    2776:	0017      	movs	r7, r2
    2778:	4e0b      	ldr	r6, [pc, #44]	; (27a8 <__aeabi_dsub+0x624>)
    277a:	e589      	b.n	2290 <__aeabi_dsub+0x10c>
    277c:	001e      	movs	r6, r3
    277e:	0027      	movs	r7, r4
    2780:	3e20      	subs	r6, #32
    2782:	40f7      	lsrs	r7, r6
    2784:	2b20      	cmp	r3, #32
    2786:	d00c      	beq.n	27a2 <__aeabi_dsub+0x61e>
    2788:	2640      	movs	r6, #64	; 0x40
    278a:	1af3      	subs	r3, r6, r3
    278c:	409c      	lsls	r4, r3
    278e:	4650      	mov	r0, sl
    2790:	4320      	orrs	r0, r4
    2792:	1e44      	subs	r4, r0, #1
    2794:	41a0      	sbcs	r0, r4
    2796:	4307      	orrs	r7, r0
    2798:	2400      	movs	r4, #0
    279a:	18bf      	adds	r7, r7, r2
    279c:	e748      	b.n	2630 <__aeabi_dsub+0x4ac>
    279e:	2400      	movs	r4, #0
    27a0:	e7d0      	b.n	2744 <__aeabi_dsub+0x5c0>
    27a2:	2400      	movs	r4, #0
    27a4:	e7f3      	b.n	278e <__aeabi_dsub+0x60a>
    27a6:	46c0      	nop			; (mov r8, r8)
    27a8:	000007ff 	.word	0x000007ff
    27ac:	ff7fffff 	.word	0xff7fffff

000027b0 <__aeabi_d2iz>:
    27b0:	b530      	push	{r4, r5, lr}
    27b2:	4d13      	ldr	r5, [pc, #76]	; (2800 <__aeabi_d2iz+0x50>)
    27b4:	030a      	lsls	r2, r1, #12
    27b6:	004b      	lsls	r3, r1, #1
    27b8:	0b12      	lsrs	r2, r2, #12
    27ba:	0d5b      	lsrs	r3, r3, #21
    27bc:	0fc9      	lsrs	r1, r1, #31
    27be:	2400      	movs	r4, #0
    27c0:	42ab      	cmp	r3, r5
    27c2:	dd10      	ble.n	27e6 <__aeabi_d2iz+0x36>
    27c4:	4c0f      	ldr	r4, [pc, #60]	; (2804 <__aeabi_d2iz+0x54>)
    27c6:	42a3      	cmp	r3, r4
    27c8:	dc0f      	bgt.n	27ea <__aeabi_d2iz+0x3a>
    27ca:	2480      	movs	r4, #128	; 0x80
    27cc:	4d0e      	ldr	r5, [pc, #56]	; (2808 <__aeabi_d2iz+0x58>)
    27ce:	0364      	lsls	r4, r4, #13
    27d0:	4322      	orrs	r2, r4
    27d2:	1aed      	subs	r5, r5, r3
    27d4:	2d1f      	cmp	r5, #31
    27d6:	dd0b      	ble.n	27f0 <__aeabi_d2iz+0x40>
    27d8:	480c      	ldr	r0, [pc, #48]	; (280c <__aeabi_d2iz+0x5c>)
    27da:	1ac3      	subs	r3, r0, r3
    27dc:	40da      	lsrs	r2, r3
    27de:	4254      	negs	r4, r2
    27e0:	2900      	cmp	r1, #0
    27e2:	d100      	bne.n	27e6 <__aeabi_d2iz+0x36>
    27e4:	0014      	movs	r4, r2
    27e6:	0020      	movs	r0, r4
    27e8:	bd30      	pop	{r4, r5, pc}
    27ea:	4b09      	ldr	r3, [pc, #36]	; (2810 <__aeabi_d2iz+0x60>)
    27ec:	18cc      	adds	r4, r1, r3
    27ee:	e7fa      	b.n	27e6 <__aeabi_d2iz+0x36>
    27f0:	4c08      	ldr	r4, [pc, #32]	; (2814 <__aeabi_d2iz+0x64>)
    27f2:	40e8      	lsrs	r0, r5
    27f4:	46a4      	mov	ip, r4
    27f6:	4463      	add	r3, ip
    27f8:	409a      	lsls	r2, r3
    27fa:	4302      	orrs	r2, r0
    27fc:	e7ef      	b.n	27de <__aeabi_d2iz+0x2e>
    27fe:	46c0      	nop			; (mov r8, r8)
    2800:	000003fe 	.word	0x000003fe
    2804:	0000041d 	.word	0x0000041d
    2808:	00000433 	.word	0x00000433
    280c:	00000413 	.word	0x00000413
    2810:	7fffffff 	.word	0x7fffffff
    2814:	fffffbed 	.word	0xfffffbed

00002818 <__aeabi_ui2d>:
    2818:	b510      	push	{r4, lr}
    281a:	1e04      	subs	r4, r0, #0
    281c:	d028      	beq.n	2870 <__aeabi_ui2d+0x58>
    281e:	f000 f8ab 	bl	2978 <__clzsi2>
    2822:	4b15      	ldr	r3, [pc, #84]	; (2878 <__aeabi_ui2d+0x60>)
    2824:	4a15      	ldr	r2, [pc, #84]	; (287c <__aeabi_ui2d+0x64>)
    2826:	1a1b      	subs	r3, r3, r0
    2828:	1ad2      	subs	r2, r2, r3
    282a:	2a1f      	cmp	r2, #31
    282c:	dd15      	ble.n	285a <__aeabi_ui2d+0x42>
    282e:	4a14      	ldr	r2, [pc, #80]	; (2880 <__aeabi_ui2d+0x68>)
    2830:	1ad2      	subs	r2, r2, r3
    2832:	4094      	lsls	r4, r2
    2834:	2200      	movs	r2, #0
    2836:	0324      	lsls	r4, r4, #12
    2838:	055b      	lsls	r3, r3, #21
    283a:	0b24      	lsrs	r4, r4, #12
    283c:	0d5b      	lsrs	r3, r3, #21
    283e:	2100      	movs	r1, #0
    2840:	0010      	movs	r0, r2
    2842:	0324      	lsls	r4, r4, #12
    2844:	0d0a      	lsrs	r2, r1, #20
    2846:	0b24      	lsrs	r4, r4, #12
    2848:	0512      	lsls	r2, r2, #20
    284a:	4322      	orrs	r2, r4
    284c:	4c0d      	ldr	r4, [pc, #52]	; (2884 <__aeabi_ui2d+0x6c>)
    284e:	051b      	lsls	r3, r3, #20
    2850:	4022      	ands	r2, r4
    2852:	4313      	orrs	r3, r2
    2854:	005b      	lsls	r3, r3, #1
    2856:	0859      	lsrs	r1, r3, #1
    2858:	bd10      	pop	{r4, pc}
    285a:	0021      	movs	r1, r4
    285c:	4091      	lsls	r1, r2
    285e:	000a      	movs	r2, r1
    2860:	210b      	movs	r1, #11
    2862:	1a08      	subs	r0, r1, r0
    2864:	40c4      	lsrs	r4, r0
    2866:	055b      	lsls	r3, r3, #21
    2868:	0324      	lsls	r4, r4, #12
    286a:	0b24      	lsrs	r4, r4, #12
    286c:	0d5b      	lsrs	r3, r3, #21
    286e:	e7e6      	b.n	283e <__aeabi_ui2d+0x26>
    2870:	2300      	movs	r3, #0
    2872:	2400      	movs	r4, #0
    2874:	2200      	movs	r2, #0
    2876:	e7e2      	b.n	283e <__aeabi_ui2d+0x26>
    2878:	0000041e 	.word	0x0000041e
    287c:	00000433 	.word	0x00000433
    2880:	00000413 	.word	0x00000413
    2884:	800fffff 	.word	0x800fffff

00002888 <__aeabi_cdrcmple>:
    2888:	4684      	mov	ip, r0
    288a:	1c10      	adds	r0, r2, #0
    288c:	4662      	mov	r2, ip
    288e:	468c      	mov	ip, r1
    2890:	1c19      	adds	r1, r3, #0
    2892:	4663      	mov	r3, ip
    2894:	e000      	b.n	2898 <__aeabi_cdcmpeq>
    2896:	46c0      	nop			; (mov r8, r8)

00002898 <__aeabi_cdcmpeq>:
    2898:	b51f      	push	{r0, r1, r2, r3, r4, lr}
    289a:	f000 f9d1 	bl	2c40 <__ledf2>
    289e:	2800      	cmp	r0, #0
    28a0:	d401      	bmi.n	28a6 <__aeabi_cdcmpeq+0xe>
    28a2:	2100      	movs	r1, #0
    28a4:	42c8      	cmn	r0, r1
    28a6:	bd1f      	pop	{r0, r1, r2, r3, r4, pc}

000028a8 <__aeabi_dcmpeq>:
    28a8:	b510      	push	{r4, lr}
    28aa:	f000 f92b 	bl	2b04 <__eqdf2>
    28ae:	4240      	negs	r0, r0
    28b0:	3001      	adds	r0, #1
    28b2:	bd10      	pop	{r4, pc}

000028b4 <__aeabi_dcmplt>:
    28b4:	b510      	push	{r4, lr}
    28b6:	f000 f9c3 	bl	2c40 <__ledf2>
    28ba:	2800      	cmp	r0, #0
    28bc:	db01      	blt.n	28c2 <__aeabi_dcmplt+0xe>
    28be:	2000      	movs	r0, #0
    28c0:	bd10      	pop	{r4, pc}
    28c2:	2001      	movs	r0, #1
    28c4:	bd10      	pop	{r4, pc}
    28c6:	46c0      	nop			; (mov r8, r8)

000028c8 <__aeabi_dcmple>:
    28c8:	b510      	push	{r4, lr}
    28ca:	f000 f9b9 	bl	2c40 <__ledf2>
    28ce:	2800      	cmp	r0, #0
    28d0:	dd01      	ble.n	28d6 <__aeabi_dcmple+0xe>
    28d2:	2000      	movs	r0, #0
    28d4:	bd10      	pop	{r4, pc}
    28d6:	2001      	movs	r0, #1
    28d8:	bd10      	pop	{r4, pc}
    28da:	46c0      	nop			; (mov r8, r8)

000028dc <__aeabi_dcmpgt>:
    28dc:	b510      	push	{r4, lr}
    28de:	f000 f94b 	bl	2b78 <__gedf2>
    28e2:	2800      	cmp	r0, #0
    28e4:	dc01      	bgt.n	28ea <__aeabi_dcmpgt+0xe>
    28e6:	2000      	movs	r0, #0
    28e8:	bd10      	pop	{r4, pc}
    28ea:	2001      	movs	r0, #1
    28ec:	bd10      	pop	{r4, pc}
    28ee:	46c0      	nop			; (mov r8, r8)

000028f0 <__aeabi_dcmpge>:
    28f0:	b510      	push	{r4, lr}
    28f2:	f000 f941 	bl	2b78 <__gedf2>
    28f6:	2800      	cmp	r0, #0
    28f8:	da01      	bge.n	28fe <__aeabi_dcmpge+0xe>
    28fa:	2000      	movs	r0, #0
    28fc:	bd10      	pop	{r4, pc}
    28fe:	2001      	movs	r0, #1
    2900:	bd10      	pop	{r4, pc}
    2902:	46c0      	nop			; (mov r8, r8)

00002904 <__aeabi_cfrcmple>:
    2904:	4684      	mov	ip, r0
    2906:	1c08      	adds	r0, r1, #0
    2908:	4661      	mov	r1, ip
    290a:	e7ff      	b.n	290c <__aeabi_cfcmpeq>

0000290c <__aeabi_cfcmpeq>:
    290c:	b51f      	push	{r0, r1, r2, r3, r4, lr}
    290e:	f000 f8b7 	bl	2a80 <__lesf2>
    2912:	2800      	cmp	r0, #0
    2914:	d401      	bmi.n	291a <__aeabi_cfcmpeq+0xe>
    2916:	2100      	movs	r1, #0
    2918:	42c8      	cmn	r0, r1
    291a:	bd1f      	pop	{r0, r1, r2, r3, r4, pc}

0000291c <__aeabi_fcmpeq>:
    291c:	b510      	push	{r4, lr}
    291e:	f000 f849 	bl	29b4 <__eqsf2>
    2922:	4240      	negs	r0, r0
    2924:	3001      	adds	r0, #1
    2926:	bd10      	pop	{r4, pc}

00002928 <__aeabi_fcmplt>:
    2928:	b510      	push	{r4, lr}
    292a:	f000 f8a9 	bl	2a80 <__lesf2>
    292e:	2800      	cmp	r0, #0
    2930:	db01      	blt.n	2936 <__aeabi_fcmplt+0xe>
    2932:	2000      	movs	r0, #0
    2934:	bd10      	pop	{r4, pc}
    2936:	2001      	movs	r0, #1
    2938:	bd10      	pop	{r4, pc}
    293a:	46c0      	nop			; (mov r8, r8)

0000293c <__aeabi_fcmple>:
    293c:	b510      	push	{r4, lr}
    293e:	f000 f89f 	bl	2a80 <__lesf2>
    2942:	2800      	cmp	r0, #0
    2944:	dd01      	ble.n	294a <__aeabi_fcmple+0xe>
    2946:	2000      	movs	r0, #0
    2948:	bd10      	pop	{r4, pc}
    294a:	2001      	movs	r0, #1
    294c:	bd10      	pop	{r4, pc}
    294e:	46c0      	nop			; (mov r8, r8)

00002950 <__aeabi_fcmpgt>:
    2950:	b510      	push	{r4, lr}
    2952:	f000 f855 	bl	2a00 <__gesf2>
    2956:	2800      	cmp	r0, #0
    2958:	dc01      	bgt.n	295e <__aeabi_fcmpgt+0xe>
    295a:	2000      	movs	r0, #0
    295c:	bd10      	pop	{r4, pc}
    295e:	2001      	movs	r0, #1
    2960:	bd10      	pop	{r4, pc}
    2962:	46c0      	nop			; (mov r8, r8)

00002964 <__aeabi_fcmpge>:
    2964:	b510      	push	{r4, lr}
    2966:	f000 f84b 	bl	2a00 <__gesf2>
    296a:	2800      	cmp	r0, #0
    296c:	da01      	bge.n	2972 <__aeabi_fcmpge+0xe>
    296e:	2000      	movs	r0, #0
    2970:	bd10      	pop	{r4, pc}
    2972:	2001      	movs	r0, #1
    2974:	bd10      	pop	{r4, pc}
    2976:	46c0      	nop			; (mov r8, r8)

00002978 <__clzsi2>:
    2978:	211c      	movs	r1, #28
    297a:	2301      	movs	r3, #1
    297c:	041b      	lsls	r3, r3, #16
    297e:	4298      	cmp	r0, r3
    2980:	d301      	bcc.n	2986 <__clzsi2+0xe>
    2982:	0c00      	lsrs	r0, r0, #16
    2984:	3910      	subs	r1, #16
    2986:	0a1b      	lsrs	r3, r3, #8
    2988:	4298      	cmp	r0, r3
    298a:	d301      	bcc.n	2990 <__clzsi2+0x18>
    298c:	0a00      	lsrs	r0, r0, #8
    298e:	3908      	subs	r1, #8
    2990:	091b      	lsrs	r3, r3, #4
    2992:	4298      	cmp	r0, r3
    2994:	d301      	bcc.n	299a <__clzsi2+0x22>
    2996:	0900      	lsrs	r0, r0, #4
    2998:	3904      	subs	r1, #4
    299a:	a202      	add	r2, pc, #8	; (adr r2, 29a4 <__clzsi2+0x2c>)
    299c:	5c10      	ldrb	r0, [r2, r0]
    299e:	1840      	adds	r0, r0, r1
    29a0:	4770      	bx	lr
    29a2:	46c0      	nop			; (mov r8, r8)
    29a4:	02020304 	.word	0x02020304
    29a8:	01010101 	.word	0x01010101
	...

000029b4 <__eqsf2>:
    29b4:	b570      	push	{r4, r5, r6, lr}
    29b6:	0042      	lsls	r2, r0, #1
    29b8:	0245      	lsls	r5, r0, #9
    29ba:	024e      	lsls	r6, r1, #9
    29bc:	004c      	lsls	r4, r1, #1
    29be:	0fc3      	lsrs	r3, r0, #31
    29c0:	0a6d      	lsrs	r5, r5, #9
    29c2:	0e12      	lsrs	r2, r2, #24
    29c4:	0a76      	lsrs	r6, r6, #9
    29c6:	0e24      	lsrs	r4, r4, #24
    29c8:	0fc9      	lsrs	r1, r1, #31
    29ca:	2001      	movs	r0, #1
    29cc:	2aff      	cmp	r2, #255	; 0xff
    29ce:	d006      	beq.n	29de <__eqsf2+0x2a>
    29d0:	2cff      	cmp	r4, #255	; 0xff
    29d2:	d003      	beq.n	29dc <__eqsf2+0x28>
    29d4:	42a2      	cmp	r2, r4
    29d6:	d101      	bne.n	29dc <__eqsf2+0x28>
    29d8:	42b5      	cmp	r5, r6
    29da:	d006      	beq.n	29ea <__eqsf2+0x36>
    29dc:	bd70      	pop	{r4, r5, r6, pc}
    29de:	2d00      	cmp	r5, #0
    29e0:	d1fc      	bne.n	29dc <__eqsf2+0x28>
    29e2:	2cff      	cmp	r4, #255	; 0xff
    29e4:	d1fa      	bne.n	29dc <__eqsf2+0x28>
    29e6:	2e00      	cmp	r6, #0
    29e8:	d1f8      	bne.n	29dc <__eqsf2+0x28>
    29ea:	428b      	cmp	r3, r1
    29ec:	d006      	beq.n	29fc <__eqsf2+0x48>
    29ee:	2001      	movs	r0, #1
    29f0:	2a00      	cmp	r2, #0
    29f2:	d1f3      	bne.n	29dc <__eqsf2+0x28>
    29f4:	0028      	movs	r0, r5
    29f6:	1e45      	subs	r5, r0, #1
    29f8:	41a8      	sbcs	r0, r5
    29fa:	e7ef      	b.n	29dc <__eqsf2+0x28>
    29fc:	2000      	movs	r0, #0
    29fe:	e7ed      	b.n	29dc <__eqsf2+0x28>

00002a00 <__gesf2>:
    2a00:	b5f0      	push	{r4, r5, r6, r7, lr}
    2a02:	0042      	lsls	r2, r0, #1
    2a04:	0245      	lsls	r5, r0, #9
    2a06:	024c      	lsls	r4, r1, #9
    2a08:	0fc3      	lsrs	r3, r0, #31
    2a0a:	0048      	lsls	r0, r1, #1
    2a0c:	0a6d      	lsrs	r5, r5, #9
    2a0e:	0e12      	lsrs	r2, r2, #24
    2a10:	0a64      	lsrs	r4, r4, #9
    2a12:	0e00      	lsrs	r0, r0, #24
    2a14:	0fc9      	lsrs	r1, r1, #31
    2a16:	2aff      	cmp	r2, #255	; 0xff
    2a18:	d01e      	beq.n	2a58 <__gesf2+0x58>
    2a1a:	28ff      	cmp	r0, #255	; 0xff
    2a1c:	d021      	beq.n	2a62 <__gesf2+0x62>
    2a1e:	2a00      	cmp	r2, #0
    2a20:	d10a      	bne.n	2a38 <__gesf2+0x38>
    2a22:	426e      	negs	r6, r5
    2a24:	416e      	adcs	r6, r5
    2a26:	b2f6      	uxtb	r6, r6
    2a28:	2800      	cmp	r0, #0
    2a2a:	d10f      	bne.n	2a4c <__gesf2+0x4c>
    2a2c:	2c00      	cmp	r4, #0
    2a2e:	d10d      	bne.n	2a4c <__gesf2+0x4c>
    2a30:	2000      	movs	r0, #0
    2a32:	2d00      	cmp	r5, #0
    2a34:	d009      	beq.n	2a4a <__gesf2+0x4a>
    2a36:	e005      	b.n	2a44 <__gesf2+0x44>
    2a38:	2800      	cmp	r0, #0
    2a3a:	d101      	bne.n	2a40 <__gesf2+0x40>
    2a3c:	2c00      	cmp	r4, #0
    2a3e:	d001      	beq.n	2a44 <__gesf2+0x44>
    2a40:	428b      	cmp	r3, r1
    2a42:	d011      	beq.n	2a68 <__gesf2+0x68>
    2a44:	2101      	movs	r1, #1
    2a46:	4258      	negs	r0, r3
    2a48:	4308      	orrs	r0, r1
    2a4a:	bdf0      	pop	{r4, r5, r6, r7, pc}
    2a4c:	2e00      	cmp	r6, #0
    2a4e:	d0f7      	beq.n	2a40 <__gesf2+0x40>
    2a50:	2001      	movs	r0, #1
    2a52:	3901      	subs	r1, #1
    2a54:	4308      	orrs	r0, r1
    2a56:	e7f8      	b.n	2a4a <__gesf2+0x4a>
    2a58:	2d00      	cmp	r5, #0
    2a5a:	d0de      	beq.n	2a1a <__gesf2+0x1a>
    2a5c:	2002      	movs	r0, #2
    2a5e:	4240      	negs	r0, r0
    2a60:	e7f3      	b.n	2a4a <__gesf2+0x4a>
    2a62:	2c00      	cmp	r4, #0
    2a64:	d0db      	beq.n	2a1e <__gesf2+0x1e>
    2a66:	e7f9      	b.n	2a5c <__gesf2+0x5c>
    2a68:	4282      	cmp	r2, r0
    2a6a:	dceb      	bgt.n	2a44 <__gesf2+0x44>
    2a6c:	db04      	blt.n	2a78 <__gesf2+0x78>
    2a6e:	42a5      	cmp	r5, r4
    2a70:	d8e8      	bhi.n	2a44 <__gesf2+0x44>
    2a72:	2000      	movs	r0, #0
    2a74:	42a5      	cmp	r5, r4
    2a76:	d2e8      	bcs.n	2a4a <__gesf2+0x4a>
    2a78:	2101      	movs	r1, #1
    2a7a:	1e58      	subs	r0, r3, #1
    2a7c:	4308      	orrs	r0, r1
    2a7e:	e7e4      	b.n	2a4a <__gesf2+0x4a>

00002a80 <__lesf2>:
    2a80:	b5f0      	push	{r4, r5, r6, r7, lr}
    2a82:	0042      	lsls	r2, r0, #1
    2a84:	024d      	lsls	r5, r1, #9
    2a86:	004c      	lsls	r4, r1, #1
    2a88:	0246      	lsls	r6, r0, #9
    2a8a:	0a76      	lsrs	r6, r6, #9
    2a8c:	0e12      	lsrs	r2, r2, #24
    2a8e:	0fc3      	lsrs	r3, r0, #31
    2a90:	0a6d      	lsrs	r5, r5, #9
    2a92:	0e24      	lsrs	r4, r4, #24
    2a94:	0fc9      	lsrs	r1, r1, #31
    2a96:	2aff      	cmp	r2, #255	; 0xff
    2a98:	d016      	beq.n	2ac8 <__lesf2+0x48>
    2a9a:	2cff      	cmp	r4, #255	; 0xff
    2a9c:	d018      	beq.n	2ad0 <__lesf2+0x50>
    2a9e:	2a00      	cmp	r2, #0
    2aa0:	d10a      	bne.n	2ab8 <__lesf2+0x38>
    2aa2:	4270      	negs	r0, r6
    2aa4:	4170      	adcs	r0, r6
    2aa6:	b2c0      	uxtb	r0, r0
    2aa8:	2c00      	cmp	r4, #0
    2aaa:	d015      	beq.n	2ad8 <__lesf2+0x58>
    2aac:	2800      	cmp	r0, #0
    2aae:	d005      	beq.n	2abc <__lesf2+0x3c>
    2ab0:	2001      	movs	r0, #1
    2ab2:	3901      	subs	r1, #1
    2ab4:	4308      	orrs	r0, r1
    2ab6:	bdf0      	pop	{r4, r5, r6, r7, pc}
    2ab8:	2c00      	cmp	r4, #0
    2aba:	d013      	beq.n	2ae4 <__lesf2+0x64>
    2abc:	4299      	cmp	r1, r3
    2abe:	d014      	beq.n	2aea <__lesf2+0x6a>
    2ac0:	2001      	movs	r0, #1
    2ac2:	425b      	negs	r3, r3
    2ac4:	4318      	orrs	r0, r3
    2ac6:	e7f6      	b.n	2ab6 <__lesf2+0x36>
    2ac8:	2002      	movs	r0, #2
    2aca:	2e00      	cmp	r6, #0
    2acc:	d1f3      	bne.n	2ab6 <__lesf2+0x36>
    2ace:	e7e4      	b.n	2a9a <__lesf2+0x1a>
    2ad0:	2002      	movs	r0, #2
    2ad2:	2d00      	cmp	r5, #0
    2ad4:	d1ef      	bne.n	2ab6 <__lesf2+0x36>
    2ad6:	e7e2      	b.n	2a9e <__lesf2+0x1e>
    2ad8:	2d00      	cmp	r5, #0
    2ada:	d1e7      	bne.n	2aac <__lesf2+0x2c>
    2adc:	2000      	movs	r0, #0
    2ade:	2e00      	cmp	r6, #0
    2ae0:	d0e9      	beq.n	2ab6 <__lesf2+0x36>
    2ae2:	e7ed      	b.n	2ac0 <__lesf2+0x40>
    2ae4:	2d00      	cmp	r5, #0
    2ae6:	d1e9      	bne.n	2abc <__lesf2+0x3c>
    2ae8:	e7ea      	b.n	2ac0 <__lesf2+0x40>
    2aea:	42a2      	cmp	r2, r4
    2aec:	dc06      	bgt.n	2afc <__lesf2+0x7c>
    2aee:	dbdf      	blt.n	2ab0 <__lesf2+0x30>
    2af0:	42ae      	cmp	r6, r5
    2af2:	d803      	bhi.n	2afc <__lesf2+0x7c>
    2af4:	2000      	movs	r0, #0
    2af6:	42ae      	cmp	r6, r5
    2af8:	d3da      	bcc.n	2ab0 <__lesf2+0x30>
    2afa:	e7dc      	b.n	2ab6 <__lesf2+0x36>
    2afc:	2001      	movs	r0, #1
    2afe:	4249      	negs	r1, r1
    2b00:	4308      	orrs	r0, r1
    2b02:	e7d8      	b.n	2ab6 <__lesf2+0x36>

00002b04 <__eqdf2>:
    2b04:	b5f0      	push	{r4, r5, r6, r7, lr}
    2b06:	464f      	mov	r7, r9
    2b08:	4646      	mov	r6, r8
    2b0a:	46d6      	mov	lr, sl
    2b0c:	005c      	lsls	r4, r3, #1
    2b0e:	b5c0      	push	{r6, r7, lr}
    2b10:	031f      	lsls	r7, r3, #12
    2b12:	0fdb      	lsrs	r3, r3, #31
    2b14:	469a      	mov	sl, r3
    2b16:	4b17      	ldr	r3, [pc, #92]	; (2b74 <__eqdf2+0x70>)
    2b18:	030e      	lsls	r6, r1, #12
    2b1a:	004d      	lsls	r5, r1, #1
    2b1c:	4684      	mov	ip, r0
    2b1e:	4680      	mov	r8, r0
    2b20:	0b36      	lsrs	r6, r6, #12
    2b22:	0d6d      	lsrs	r5, r5, #21
    2b24:	0fc9      	lsrs	r1, r1, #31
    2b26:	4691      	mov	r9, r2
    2b28:	0b3f      	lsrs	r7, r7, #12
    2b2a:	0d64      	lsrs	r4, r4, #21
    2b2c:	2001      	movs	r0, #1
    2b2e:	429d      	cmp	r5, r3
    2b30:	d008      	beq.n	2b44 <__eqdf2+0x40>
    2b32:	429c      	cmp	r4, r3
    2b34:	d001      	beq.n	2b3a <__eqdf2+0x36>
    2b36:	42a5      	cmp	r5, r4
    2b38:	d00b      	beq.n	2b52 <__eqdf2+0x4e>
    2b3a:	bc1c      	pop	{r2, r3, r4}
    2b3c:	4690      	mov	r8, r2
    2b3e:	4699      	mov	r9, r3
    2b40:	46a2      	mov	sl, r4
    2b42:	bdf0      	pop	{r4, r5, r6, r7, pc}
    2b44:	4663      	mov	r3, ip
    2b46:	4333      	orrs	r3, r6
    2b48:	d1f7      	bne.n	2b3a <__eqdf2+0x36>
    2b4a:	42ac      	cmp	r4, r5
    2b4c:	d1f5      	bne.n	2b3a <__eqdf2+0x36>
    2b4e:	433a      	orrs	r2, r7
    2b50:	d1f3      	bne.n	2b3a <__eqdf2+0x36>
    2b52:	2001      	movs	r0, #1
    2b54:	42be      	cmp	r6, r7
    2b56:	d1f0      	bne.n	2b3a <__eqdf2+0x36>
    2b58:	45c8      	cmp	r8, r9
    2b5a:	d1ee      	bne.n	2b3a <__eqdf2+0x36>
    2b5c:	4551      	cmp	r1, sl
    2b5e:	d007      	beq.n	2b70 <__eqdf2+0x6c>
    2b60:	2d00      	cmp	r5, #0
    2b62:	d1ea      	bne.n	2b3a <__eqdf2+0x36>
    2b64:	4663      	mov	r3, ip
    2b66:	431e      	orrs	r6, r3
    2b68:	0030      	movs	r0, r6
    2b6a:	1e46      	subs	r6, r0, #1
    2b6c:	41b0      	sbcs	r0, r6
    2b6e:	e7e4      	b.n	2b3a <__eqdf2+0x36>
    2b70:	2000      	movs	r0, #0
    2b72:	e7e2      	b.n	2b3a <__eqdf2+0x36>
    2b74:	000007ff 	.word	0x000007ff

00002b78 <__gedf2>:
    2b78:	b5f0      	push	{r4, r5, r6, r7, lr}
    2b7a:	4645      	mov	r5, r8
    2b7c:	46de      	mov	lr, fp
    2b7e:	4657      	mov	r7, sl
    2b80:	464e      	mov	r6, r9
    2b82:	b5e0      	push	{r5, r6, r7, lr}
    2b84:	031f      	lsls	r7, r3, #12
    2b86:	0b3d      	lsrs	r5, r7, #12
    2b88:	4f2c      	ldr	r7, [pc, #176]	; (2c3c <__gedf2+0xc4>)
    2b8a:	030e      	lsls	r6, r1, #12
    2b8c:	004c      	lsls	r4, r1, #1
    2b8e:	46ab      	mov	fp, r5
    2b90:	005d      	lsls	r5, r3, #1
    2b92:	4684      	mov	ip, r0
    2b94:	0b36      	lsrs	r6, r6, #12
    2b96:	0d64      	lsrs	r4, r4, #21
    2b98:	0fc9      	lsrs	r1, r1, #31
    2b9a:	4690      	mov	r8, r2
    2b9c:	0d6d      	lsrs	r5, r5, #21
    2b9e:	0fdb      	lsrs	r3, r3, #31
    2ba0:	42bc      	cmp	r4, r7
    2ba2:	d02a      	beq.n	2bfa <__gedf2+0x82>
    2ba4:	4f25      	ldr	r7, [pc, #148]	; (2c3c <__gedf2+0xc4>)
    2ba6:	42bd      	cmp	r5, r7
    2ba8:	d02d      	beq.n	2c06 <__gedf2+0x8e>
    2baa:	2c00      	cmp	r4, #0
    2bac:	d10f      	bne.n	2bce <__gedf2+0x56>
    2bae:	4330      	orrs	r0, r6
    2bb0:	0007      	movs	r7, r0
    2bb2:	4681      	mov	r9, r0
    2bb4:	4278      	negs	r0, r7
    2bb6:	4178      	adcs	r0, r7
    2bb8:	b2c0      	uxtb	r0, r0
    2bba:	2d00      	cmp	r5, #0
    2bbc:	d117      	bne.n	2bee <__gedf2+0x76>
    2bbe:	465f      	mov	r7, fp
    2bc0:	433a      	orrs	r2, r7
    2bc2:	d114      	bne.n	2bee <__gedf2+0x76>
    2bc4:	464b      	mov	r3, r9
    2bc6:	2000      	movs	r0, #0
    2bc8:	2b00      	cmp	r3, #0
    2bca:	d00a      	beq.n	2be2 <__gedf2+0x6a>
    2bcc:	e006      	b.n	2bdc <__gedf2+0x64>
    2bce:	2d00      	cmp	r5, #0
    2bd0:	d102      	bne.n	2bd8 <__gedf2+0x60>
    2bd2:	4658      	mov	r0, fp
    2bd4:	4302      	orrs	r2, r0
    2bd6:	d001      	beq.n	2bdc <__gedf2+0x64>
    2bd8:	4299      	cmp	r1, r3
    2bda:	d018      	beq.n	2c0e <__gedf2+0x96>
    2bdc:	4248      	negs	r0, r1
    2bde:	2101      	movs	r1, #1
    2be0:	4308      	orrs	r0, r1
    2be2:	bc3c      	pop	{r2, r3, r4, r5}
    2be4:	4690      	mov	r8, r2
    2be6:	4699      	mov	r9, r3
    2be8:	46a2      	mov	sl, r4
    2bea:	46ab      	mov	fp, r5
    2bec:	bdf0      	pop	{r4, r5, r6, r7, pc}
    2bee:	2800      	cmp	r0, #0
    2bf0:	d0f2      	beq.n	2bd8 <__gedf2+0x60>
    2bf2:	2001      	movs	r0, #1
    2bf4:	3b01      	subs	r3, #1
    2bf6:	4318      	orrs	r0, r3
    2bf8:	e7f3      	b.n	2be2 <__gedf2+0x6a>
    2bfa:	0037      	movs	r7, r6
    2bfc:	4307      	orrs	r7, r0
    2bfe:	d0d1      	beq.n	2ba4 <__gedf2+0x2c>
    2c00:	2002      	movs	r0, #2
    2c02:	4240      	negs	r0, r0
    2c04:	e7ed      	b.n	2be2 <__gedf2+0x6a>
    2c06:	465f      	mov	r7, fp
    2c08:	4317      	orrs	r7, r2
    2c0a:	d0ce      	beq.n	2baa <__gedf2+0x32>
    2c0c:	e7f8      	b.n	2c00 <__gedf2+0x88>
    2c0e:	42ac      	cmp	r4, r5
    2c10:	dce4      	bgt.n	2bdc <__gedf2+0x64>
    2c12:	da03      	bge.n	2c1c <__gedf2+0xa4>
    2c14:	1e48      	subs	r0, r1, #1
    2c16:	2101      	movs	r1, #1
    2c18:	4308      	orrs	r0, r1
    2c1a:	e7e2      	b.n	2be2 <__gedf2+0x6a>
    2c1c:	455e      	cmp	r6, fp
    2c1e:	d8dd      	bhi.n	2bdc <__gedf2+0x64>
    2c20:	d006      	beq.n	2c30 <__gedf2+0xb8>
    2c22:	2000      	movs	r0, #0
    2c24:	455e      	cmp	r6, fp
    2c26:	d2dc      	bcs.n	2be2 <__gedf2+0x6a>
    2c28:	2301      	movs	r3, #1
    2c2a:	1e48      	subs	r0, r1, #1
    2c2c:	4318      	orrs	r0, r3
    2c2e:	e7d8      	b.n	2be2 <__gedf2+0x6a>
    2c30:	45c4      	cmp	ip, r8
    2c32:	d8d3      	bhi.n	2bdc <__gedf2+0x64>
    2c34:	2000      	movs	r0, #0
    2c36:	45c4      	cmp	ip, r8
    2c38:	d3f6      	bcc.n	2c28 <__gedf2+0xb0>
    2c3a:	e7d2      	b.n	2be2 <__gedf2+0x6a>
    2c3c:	000007ff 	.word	0x000007ff

00002c40 <__ledf2>:
    2c40:	b5f0      	push	{r4, r5, r6, r7, lr}
    2c42:	464e      	mov	r6, r9
    2c44:	4645      	mov	r5, r8
    2c46:	46de      	mov	lr, fp
    2c48:	4657      	mov	r7, sl
    2c4a:	005c      	lsls	r4, r3, #1
    2c4c:	b5e0      	push	{r5, r6, r7, lr}
    2c4e:	031f      	lsls	r7, r3, #12
    2c50:	0fdb      	lsrs	r3, r3, #31
    2c52:	4699      	mov	r9, r3
    2c54:	4b2a      	ldr	r3, [pc, #168]	; (2d00 <__ledf2+0xc0>)
    2c56:	030e      	lsls	r6, r1, #12
    2c58:	004d      	lsls	r5, r1, #1
    2c5a:	0fc9      	lsrs	r1, r1, #31
    2c5c:	4684      	mov	ip, r0
    2c5e:	0b36      	lsrs	r6, r6, #12
    2c60:	0d6d      	lsrs	r5, r5, #21
    2c62:	468b      	mov	fp, r1
    2c64:	4690      	mov	r8, r2
    2c66:	0b3f      	lsrs	r7, r7, #12
    2c68:	0d64      	lsrs	r4, r4, #21
    2c6a:	429d      	cmp	r5, r3
    2c6c:	d020      	beq.n	2cb0 <__ledf2+0x70>
    2c6e:	4b24      	ldr	r3, [pc, #144]	; (2d00 <__ledf2+0xc0>)
    2c70:	429c      	cmp	r4, r3
    2c72:	d022      	beq.n	2cba <__ledf2+0x7a>
    2c74:	2d00      	cmp	r5, #0
    2c76:	d112      	bne.n	2c9e <__ledf2+0x5e>
    2c78:	4330      	orrs	r0, r6
    2c7a:	4243      	negs	r3, r0
    2c7c:	4143      	adcs	r3, r0
    2c7e:	b2db      	uxtb	r3, r3
    2c80:	2c00      	cmp	r4, #0
    2c82:	d01f      	beq.n	2cc4 <__ledf2+0x84>
    2c84:	2b00      	cmp	r3, #0
    2c86:	d00c      	beq.n	2ca2 <__ledf2+0x62>
    2c88:	464b      	mov	r3, r9
    2c8a:	2001      	movs	r0, #1
    2c8c:	3b01      	subs	r3, #1
    2c8e:	4303      	orrs	r3, r0
    2c90:	0018      	movs	r0, r3
    2c92:	bc3c      	pop	{r2, r3, r4, r5}
    2c94:	4690      	mov	r8, r2
    2c96:	4699      	mov	r9, r3
    2c98:	46a2      	mov	sl, r4
    2c9a:	46ab      	mov	fp, r5
    2c9c:	bdf0      	pop	{r4, r5, r6, r7, pc}
    2c9e:	2c00      	cmp	r4, #0
    2ca0:	d016      	beq.n	2cd0 <__ledf2+0x90>
    2ca2:	45cb      	cmp	fp, r9
    2ca4:	d017      	beq.n	2cd6 <__ledf2+0x96>
    2ca6:	465b      	mov	r3, fp
    2ca8:	4259      	negs	r1, r3
    2caa:	2301      	movs	r3, #1
    2cac:	430b      	orrs	r3, r1
    2cae:	e7ef      	b.n	2c90 <__ledf2+0x50>
    2cb0:	0031      	movs	r1, r6
    2cb2:	2302      	movs	r3, #2
    2cb4:	4301      	orrs	r1, r0
    2cb6:	d1eb      	bne.n	2c90 <__ledf2+0x50>
    2cb8:	e7d9      	b.n	2c6e <__ledf2+0x2e>
    2cba:	0039      	movs	r1, r7
    2cbc:	2302      	movs	r3, #2
    2cbe:	4311      	orrs	r1, r2
    2cc0:	d1e6      	bne.n	2c90 <__ledf2+0x50>
    2cc2:	e7d7      	b.n	2c74 <__ledf2+0x34>
    2cc4:	433a      	orrs	r2, r7
    2cc6:	d1dd      	bne.n	2c84 <__ledf2+0x44>
    2cc8:	2300      	movs	r3, #0
    2cca:	2800      	cmp	r0, #0
    2ccc:	d0e0      	beq.n	2c90 <__ledf2+0x50>
    2cce:	e7ea      	b.n	2ca6 <__ledf2+0x66>
    2cd0:	433a      	orrs	r2, r7
    2cd2:	d1e6      	bne.n	2ca2 <__ledf2+0x62>
    2cd4:	e7e7      	b.n	2ca6 <__ledf2+0x66>
    2cd6:	42a5      	cmp	r5, r4
    2cd8:	dce5      	bgt.n	2ca6 <__ledf2+0x66>
    2cda:	db05      	blt.n	2ce8 <__ledf2+0xa8>
    2cdc:	42be      	cmp	r6, r7
    2cde:	d8e2      	bhi.n	2ca6 <__ledf2+0x66>
    2ce0:	d007      	beq.n	2cf2 <__ledf2+0xb2>
    2ce2:	2300      	movs	r3, #0
    2ce4:	42be      	cmp	r6, r7
    2ce6:	d2d3      	bcs.n	2c90 <__ledf2+0x50>
    2ce8:	4659      	mov	r1, fp
    2cea:	2301      	movs	r3, #1
    2cec:	3901      	subs	r1, #1
    2cee:	430b      	orrs	r3, r1
    2cf0:	e7ce      	b.n	2c90 <__ledf2+0x50>
    2cf2:	45c4      	cmp	ip, r8
    2cf4:	d8d7      	bhi.n	2ca6 <__ledf2+0x66>
    2cf6:	2300      	movs	r3, #0
    2cf8:	45c4      	cmp	ip, r8
    2cfa:	d3f5      	bcc.n	2ce8 <__ledf2+0xa8>
    2cfc:	e7c8      	b.n	2c90 <__ledf2+0x50>
    2cfe:	46c0      	nop			; (mov r8, r8)
    2d00:	000007ff 	.word	0x000007ff

00002d04 <__libc_init_array>:
    2d04:	b570      	push	{r4, r5, r6, lr}
    2d06:	2600      	movs	r6, #0
    2d08:	4d0c      	ldr	r5, [pc, #48]	; (2d3c <__libc_init_array+0x38>)
    2d0a:	4c0d      	ldr	r4, [pc, #52]	; (2d40 <__libc_init_array+0x3c>)
    2d0c:	1b64      	subs	r4, r4, r5
    2d0e:	10a4      	asrs	r4, r4, #2
    2d10:	42a6      	cmp	r6, r4
    2d12:	d109      	bne.n	2d28 <__libc_init_array+0x24>
    2d14:	2600      	movs	r6, #0
    2d16:	f001 f9a1 	bl	405c <_init>
    2d1a:	4d0a      	ldr	r5, [pc, #40]	; (2d44 <__libc_init_array+0x40>)
    2d1c:	4c0a      	ldr	r4, [pc, #40]	; (2d48 <__libc_init_array+0x44>)
    2d1e:	1b64      	subs	r4, r4, r5
    2d20:	10a4      	asrs	r4, r4, #2
    2d22:	42a6      	cmp	r6, r4
    2d24:	d105      	bne.n	2d32 <__libc_init_array+0x2e>
    2d26:	bd70      	pop	{r4, r5, r6, pc}
    2d28:	00b3      	lsls	r3, r6, #2
    2d2a:	58eb      	ldr	r3, [r5, r3]
    2d2c:	4798      	blx	r3
    2d2e:	3601      	adds	r6, #1
    2d30:	e7ee      	b.n	2d10 <__libc_init_array+0xc>
    2d32:	00b3      	lsls	r3, r6, #2
    2d34:	58eb      	ldr	r3, [r5, r3]
    2d36:	4798      	blx	r3
    2d38:	3601      	adds	r6, #1
    2d3a:	e7f2      	b.n	2d22 <__libc_init_array+0x1e>
    2d3c:	00004068 	.word	0x00004068
    2d40:	00004068 	.word	0x00004068
    2d44:	00004068 	.word	0x00004068
    2d48:	0000406c 	.word	0x0000406c

00002d4c <memset>:
    2d4c:	0003      	movs	r3, r0
    2d4e:	1882      	adds	r2, r0, r2
    2d50:	4293      	cmp	r3, r2
    2d52:	d100      	bne.n	2d56 <memset+0xa>
    2d54:	4770      	bx	lr
    2d56:	7019      	strb	r1, [r3, #0]
    2d58:	3301      	adds	r3, #1
    2d5a:	e7f9      	b.n	2d50 <memset+0x4>

00002d5c <iprintf>:
    2d5c:	b40f      	push	{r0, r1, r2, r3}
    2d5e:	4b0b      	ldr	r3, [pc, #44]	; (2d8c <iprintf+0x30>)
    2d60:	b513      	push	{r0, r1, r4, lr}
    2d62:	681c      	ldr	r4, [r3, #0]
    2d64:	2c00      	cmp	r4, #0
    2d66:	d005      	beq.n	2d74 <iprintf+0x18>
    2d68:	69a3      	ldr	r3, [r4, #24]
    2d6a:	2b00      	cmp	r3, #0
    2d6c:	d102      	bne.n	2d74 <iprintf+0x18>
    2d6e:	0020      	movs	r0, r4
    2d70:	f000 faf2 	bl	3358 <__sinit>
    2d74:	ab05      	add	r3, sp, #20
    2d76:	9a04      	ldr	r2, [sp, #16]
    2d78:	68a1      	ldr	r1, [r4, #8]
    2d7a:	0020      	movs	r0, r4
    2d7c:	9301      	str	r3, [sp, #4]
    2d7e:	f000 fcc7 	bl	3710 <_vfiprintf_r>
    2d82:	bc16      	pop	{r1, r2, r4}
    2d84:	bc08      	pop	{r3}
    2d86:	b004      	add	sp, #16
    2d88:	4718      	bx	r3
    2d8a:	46c0      	nop			; (mov r8, r8)
    2d8c:	20000014 	.word	0x20000014

00002d90 <_puts_r>:
    2d90:	b570      	push	{r4, r5, r6, lr}
    2d92:	0005      	movs	r5, r0
    2d94:	000e      	movs	r6, r1
    2d96:	2800      	cmp	r0, #0
    2d98:	d004      	beq.n	2da4 <_puts_r+0x14>
    2d9a:	6983      	ldr	r3, [r0, #24]
    2d9c:	2b00      	cmp	r3, #0
    2d9e:	d101      	bne.n	2da4 <_puts_r+0x14>
    2da0:	f000 fada 	bl	3358 <__sinit>
    2da4:	69ab      	ldr	r3, [r5, #24]
    2da6:	68ac      	ldr	r4, [r5, #8]
    2da8:	2b00      	cmp	r3, #0
    2daa:	d102      	bne.n	2db2 <_puts_r+0x22>
    2dac:	0028      	movs	r0, r5
    2dae:	f000 fad3 	bl	3358 <__sinit>
    2db2:	4b24      	ldr	r3, [pc, #144]	; (2e44 <_puts_r+0xb4>)
    2db4:	429c      	cmp	r4, r3
    2db6:	d10f      	bne.n	2dd8 <_puts_r+0x48>
    2db8:	686c      	ldr	r4, [r5, #4]
    2dba:	89a3      	ldrh	r3, [r4, #12]
    2dbc:	071b      	lsls	r3, r3, #28
    2dbe:	d502      	bpl.n	2dc6 <_puts_r+0x36>
    2dc0:	6923      	ldr	r3, [r4, #16]
    2dc2:	2b00      	cmp	r3, #0
    2dc4:	d120      	bne.n	2e08 <_puts_r+0x78>
    2dc6:	0021      	movs	r1, r4
    2dc8:	0028      	movs	r0, r5
    2dca:	f000 f957 	bl	307c <__swsetup_r>
    2dce:	2800      	cmp	r0, #0
    2dd0:	d01a      	beq.n	2e08 <_puts_r+0x78>
    2dd2:	2001      	movs	r0, #1
    2dd4:	4240      	negs	r0, r0
    2dd6:	bd70      	pop	{r4, r5, r6, pc}
    2dd8:	4b1b      	ldr	r3, [pc, #108]	; (2e48 <_puts_r+0xb8>)
    2dda:	429c      	cmp	r4, r3
    2ddc:	d101      	bne.n	2de2 <_puts_r+0x52>
    2dde:	68ac      	ldr	r4, [r5, #8]
    2de0:	e7eb      	b.n	2dba <_puts_r+0x2a>
    2de2:	4b1a      	ldr	r3, [pc, #104]	; (2e4c <_puts_r+0xbc>)
    2de4:	429c      	cmp	r4, r3
    2de6:	d1e8      	bne.n	2dba <_puts_r+0x2a>
    2de8:	68ec      	ldr	r4, [r5, #12]
    2dea:	e7e6      	b.n	2dba <_puts_r+0x2a>
    2dec:	3b01      	subs	r3, #1
    2dee:	3601      	adds	r6, #1
    2df0:	60a3      	str	r3, [r4, #8]
    2df2:	2b00      	cmp	r3, #0
    2df4:	da04      	bge.n	2e00 <_puts_r+0x70>
    2df6:	69a2      	ldr	r2, [r4, #24]
    2df8:	4293      	cmp	r3, r2
    2dfa:	db16      	blt.n	2e2a <_puts_r+0x9a>
    2dfc:	290a      	cmp	r1, #10
    2dfe:	d014      	beq.n	2e2a <_puts_r+0x9a>
    2e00:	6823      	ldr	r3, [r4, #0]
    2e02:	1c5a      	adds	r2, r3, #1
    2e04:	6022      	str	r2, [r4, #0]
    2e06:	7019      	strb	r1, [r3, #0]
    2e08:	7831      	ldrb	r1, [r6, #0]
    2e0a:	68a3      	ldr	r3, [r4, #8]
    2e0c:	2900      	cmp	r1, #0
    2e0e:	d1ed      	bne.n	2dec <_puts_r+0x5c>
    2e10:	3b01      	subs	r3, #1
    2e12:	60a3      	str	r3, [r4, #8]
    2e14:	2b00      	cmp	r3, #0
    2e16:	da0f      	bge.n	2e38 <_puts_r+0xa8>
    2e18:	0022      	movs	r2, r4
    2e1a:	310a      	adds	r1, #10
    2e1c:	0028      	movs	r0, r5
    2e1e:	f000 f8d7 	bl	2fd0 <__swbuf_r>
    2e22:	1c43      	adds	r3, r0, #1
    2e24:	d0d5      	beq.n	2dd2 <_puts_r+0x42>
    2e26:	200a      	movs	r0, #10
    2e28:	e7d5      	b.n	2dd6 <_puts_r+0x46>
    2e2a:	0022      	movs	r2, r4
    2e2c:	0028      	movs	r0, r5
    2e2e:	f000 f8cf 	bl	2fd0 <__swbuf_r>
    2e32:	1c43      	adds	r3, r0, #1
    2e34:	d1e8      	bne.n	2e08 <_puts_r+0x78>
    2e36:	e7cc      	b.n	2dd2 <_puts_r+0x42>
    2e38:	200a      	movs	r0, #10
    2e3a:	6823      	ldr	r3, [r4, #0]
    2e3c:	1c5a      	adds	r2, r3, #1
    2e3e:	6022      	str	r2, [r4, #0]
    2e40:	7018      	strb	r0, [r3, #0]
    2e42:	e7c8      	b.n	2dd6 <_puts_r+0x46>
    2e44:	00003fe8 	.word	0x00003fe8
    2e48:	00004008 	.word	0x00004008
    2e4c:	00003fc8 	.word	0x00003fc8

00002e50 <puts>:
    2e50:	b510      	push	{r4, lr}
    2e52:	4b03      	ldr	r3, [pc, #12]	; (2e60 <puts+0x10>)
    2e54:	0001      	movs	r1, r0
    2e56:	6818      	ldr	r0, [r3, #0]
    2e58:	f7ff ff9a 	bl	2d90 <_puts_r>
    2e5c:	bd10      	pop	{r4, pc}
    2e5e:	46c0      	nop			; (mov r8, r8)
    2e60:	20000014 	.word	0x20000014

00002e64 <setbuf>:
    2e64:	424a      	negs	r2, r1
    2e66:	414a      	adcs	r2, r1
    2e68:	2380      	movs	r3, #128	; 0x80
    2e6a:	b510      	push	{r4, lr}
    2e6c:	0052      	lsls	r2, r2, #1
    2e6e:	00db      	lsls	r3, r3, #3
    2e70:	f000 f802 	bl	2e78 <setvbuf>
    2e74:	bd10      	pop	{r4, pc}
	...

00002e78 <setvbuf>:
    2e78:	b5f0      	push	{r4, r5, r6, r7, lr}
    2e7a:	001d      	movs	r5, r3
    2e7c:	4b4f      	ldr	r3, [pc, #316]	; (2fbc <setvbuf+0x144>)
    2e7e:	b085      	sub	sp, #20
    2e80:	681e      	ldr	r6, [r3, #0]
    2e82:	0004      	movs	r4, r0
    2e84:	000f      	movs	r7, r1
    2e86:	9200      	str	r2, [sp, #0]
    2e88:	2e00      	cmp	r6, #0
    2e8a:	d005      	beq.n	2e98 <setvbuf+0x20>
    2e8c:	69b3      	ldr	r3, [r6, #24]
    2e8e:	2b00      	cmp	r3, #0
    2e90:	d102      	bne.n	2e98 <setvbuf+0x20>
    2e92:	0030      	movs	r0, r6
    2e94:	f000 fa60 	bl	3358 <__sinit>
    2e98:	4b49      	ldr	r3, [pc, #292]	; (2fc0 <setvbuf+0x148>)
    2e9a:	429c      	cmp	r4, r3
    2e9c:	d150      	bne.n	2f40 <setvbuf+0xc8>
    2e9e:	6874      	ldr	r4, [r6, #4]
    2ea0:	9b00      	ldr	r3, [sp, #0]
    2ea2:	2b02      	cmp	r3, #2
    2ea4:	d005      	beq.n	2eb2 <setvbuf+0x3a>
    2ea6:	2b01      	cmp	r3, #1
    2ea8:	d900      	bls.n	2eac <setvbuf+0x34>
    2eaa:	e084      	b.n	2fb6 <setvbuf+0x13e>
    2eac:	2d00      	cmp	r5, #0
    2eae:	da00      	bge.n	2eb2 <setvbuf+0x3a>
    2eb0:	e081      	b.n	2fb6 <setvbuf+0x13e>
    2eb2:	0021      	movs	r1, r4
    2eb4:	0030      	movs	r0, r6
    2eb6:	f000 f9e1 	bl	327c <_fflush_r>
    2eba:	6b61      	ldr	r1, [r4, #52]	; 0x34
    2ebc:	2900      	cmp	r1, #0
    2ebe:	d008      	beq.n	2ed2 <setvbuf+0x5a>
    2ec0:	0023      	movs	r3, r4
    2ec2:	3344      	adds	r3, #68	; 0x44
    2ec4:	4299      	cmp	r1, r3
    2ec6:	d002      	beq.n	2ece <setvbuf+0x56>
    2ec8:	0030      	movs	r0, r6
    2eca:	f000 fb51 	bl	3570 <_free_r>
    2ece:	2300      	movs	r3, #0
    2ed0:	6363      	str	r3, [r4, #52]	; 0x34
    2ed2:	2300      	movs	r3, #0
    2ed4:	61a3      	str	r3, [r4, #24]
    2ed6:	6063      	str	r3, [r4, #4]
    2ed8:	89a3      	ldrh	r3, [r4, #12]
    2eda:	061b      	lsls	r3, r3, #24
    2edc:	d503      	bpl.n	2ee6 <setvbuf+0x6e>
    2ede:	6921      	ldr	r1, [r4, #16]
    2ee0:	0030      	movs	r0, r6
    2ee2:	f000 fb45 	bl	3570 <_free_r>
    2ee6:	89a3      	ldrh	r3, [r4, #12]
    2ee8:	4a36      	ldr	r2, [pc, #216]	; (2fc4 <setvbuf+0x14c>)
    2eea:	4013      	ands	r3, r2
    2eec:	81a3      	strh	r3, [r4, #12]
    2eee:	9b00      	ldr	r3, [sp, #0]
    2ef0:	2b02      	cmp	r3, #2
    2ef2:	d05a      	beq.n	2faa <setvbuf+0x132>
    2ef4:	ab03      	add	r3, sp, #12
    2ef6:	aa02      	add	r2, sp, #8
    2ef8:	0021      	movs	r1, r4
    2efa:	0030      	movs	r0, r6
    2efc:	f000 fac2 	bl	3484 <__swhatbuf_r>
    2f00:	89a3      	ldrh	r3, [r4, #12]
    2f02:	4318      	orrs	r0, r3
    2f04:	81a0      	strh	r0, [r4, #12]
    2f06:	2d00      	cmp	r5, #0
    2f08:	d124      	bne.n	2f54 <setvbuf+0xdc>
    2f0a:	9d02      	ldr	r5, [sp, #8]
    2f0c:	0028      	movs	r0, r5
    2f0e:	f000 fb25 	bl	355c <malloc>
    2f12:	9501      	str	r5, [sp, #4]
    2f14:	1e07      	subs	r7, r0, #0
    2f16:	d142      	bne.n	2f9e <setvbuf+0x126>
    2f18:	9b02      	ldr	r3, [sp, #8]
    2f1a:	9301      	str	r3, [sp, #4]
    2f1c:	42ab      	cmp	r3, r5
    2f1e:	d139      	bne.n	2f94 <setvbuf+0x11c>
    2f20:	2001      	movs	r0, #1
    2f22:	4240      	negs	r0, r0
    2f24:	2302      	movs	r3, #2
    2f26:	89a2      	ldrh	r2, [r4, #12]
    2f28:	4313      	orrs	r3, r2
    2f2a:	81a3      	strh	r3, [r4, #12]
    2f2c:	2300      	movs	r3, #0
    2f2e:	60a3      	str	r3, [r4, #8]
    2f30:	0023      	movs	r3, r4
    2f32:	3347      	adds	r3, #71	; 0x47
    2f34:	6023      	str	r3, [r4, #0]
    2f36:	6123      	str	r3, [r4, #16]
    2f38:	2301      	movs	r3, #1
    2f3a:	6163      	str	r3, [r4, #20]
    2f3c:	b005      	add	sp, #20
    2f3e:	bdf0      	pop	{r4, r5, r6, r7, pc}
    2f40:	4b21      	ldr	r3, [pc, #132]	; (2fc8 <setvbuf+0x150>)
    2f42:	429c      	cmp	r4, r3
    2f44:	d101      	bne.n	2f4a <setvbuf+0xd2>
    2f46:	68b4      	ldr	r4, [r6, #8]
    2f48:	e7aa      	b.n	2ea0 <setvbuf+0x28>
    2f4a:	4b20      	ldr	r3, [pc, #128]	; (2fcc <setvbuf+0x154>)
    2f4c:	429c      	cmp	r4, r3
    2f4e:	d1a7      	bne.n	2ea0 <setvbuf+0x28>
    2f50:	68f4      	ldr	r4, [r6, #12]
    2f52:	e7a5      	b.n	2ea0 <setvbuf+0x28>
    2f54:	2f00      	cmp	r7, #0
    2f56:	d0d9      	beq.n	2f0c <setvbuf+0x94>
    2f58:	69b3      	ldr	r3, [r6, #24]
    2f5a:	2b00      	cmp	r3, #0
    2f5c:	d102      	bne.n	2f64 <setvbuf+0xec>
    2f5e:	0030      	movs	r0, r6
    2f60:	f000 f9fa 	bl	3358 <__sinit>
    2f64:	9b00      	ldr	r3, [sp, #0]
    2f66:	2b01      	cmp	r3, #1
    2f68:	d103      	bne.n	2f72 <setvbuf+0xfa>
    2f6a:	89a3      	ldrh	r3, [r4, #12]
    2f6c:	9a00      	ldr	r2, [sp, #0]
    2f6e:	431a      	orrs	r2, r3
    2f70:	81a2      	strh	r2, [r4, #12]
    2f72:	2008      	movs	r0, #8
    2f74:	89a3      	ldrh	r3, [r4, #12]
    2f76:	6027      	str	r7, [r4, #0]
    2f78:	6127      	str	r7, [r4, #16]
    2f7a:	6165      	str	r5, [r4, #20]
    2f7c:	4018      	ands	r0, r3
    2f7e:	d018      	beq.n	2fb2 <setvbuf+0x13a>
    2f80:	2001      	movs	r0, #1
    2f82:	4018      	ands	r0, r3
    2f84:	2300      	movs	r3, #0
    2f86:	4298      	cmp	r0, r3
    2f88:	d011      	beq.n	2fae <setvbuf+0x136>
    2f8a:	426d      	negs	r5, r5
    2f8c:	60a3      	str	r3, [r4, #8]
    2f8e:	61a5      	str	r5, [r4, #24]
    2f90:	0018      	movs	r0, r3
    2f92:	e7d3      	b.n	2f3c <setvbuf+0xc4>
    2f94:	9801      	ldr	r0, [sp, #4]
    2f96:	f000 fae1 	bl	355c <malloc>
    2f9a:	1e07      	subs	r7, r0, #0
    2f9c:	d0c0      	beq.n	2f20 <setvbuf+0xa8>
    2f9e:	2380      	movs	r3, #128	; 0x80
    2fa0:	89a2      	ldrh	r2, [r4, #12]
    2fa2:	9d01      	ldr	r5, [sp, #4]
    2fa4:	4313      	orrs	r3, r2
    2fa6:	81a3      	strh	r3, [r4, #12]
    2fa8:	e7d6      	b.n	2f58 <setvbuf+0xe0>
    2faa:	2000      	movs	r0, #0
    2fac:	e7ba      	b.n	2f24 <setvbuf+0xac>
    2fae:	60a5      	str	r5, [r4, #8]
    2fb0:	e7c4      	b.n	2f3c <setvbuf+0xc4>
    2fb2:	60a0      	str	r0, [r4, #8]
    2fb4:	e7c2      	b.n	2f3c <setvbuf+0xc4>
    2fb6:	2001      	movs	r0, #1
    2fb8:	4240      	negs	r0, r0
    2fba:	e7bf      	b.n	2f3c <setvbuf+0xc4>
    2fbc:	20000014 	.word	0x20000014
    2fc0:	00003fe8 	.word	0x00003fe8
    2fc4:	fffff35c 	.word	0xfffff35c
    2fc8:	00004008 	.word	0x00004008
    2fcc:	00003fc8 	.word	0x00003fc8

00002fd0 <__swbuf_r>:
    2fd0:	b5f8      	push	{r3, r4, r5, r6, r7, lr}
    2fd2:	0005      	movs	r5, r0
    2fd4:	000e      	movs	r6, r1
    2fd6:	0014      	movs	r4, r2
    2fd8:	2800      	cmp	r0, #0
    2fda:	d004      	beq.n	2fe6 <__swbuf_r+0x16>
    2fdc:	6983      	ldr	r3, [r0, #24]
    2fde:	2b00      	cmp	r3, #0
    2fe0:	d101      	bne.n	2fe6 <__swbuf_r+0x16>
    2fe2:	f000 f9b9 	bl	3358 <__sinit>
    2fe6:	4b22      	ldr	r3, [pc, #136]	; (3070 <__swbuf_r+0xa0>)
    2fe8:	429c      	cmp	r4, r3
    2fea:	d12d      	bne.n	3048 <__swbuf_r+0x78>
    2fec:	686c      	ldr	r4, [r5, #4]
    2fee:	69a3      	ldr	r3, [r4, #24]
    2ff0:	60a3      	str	r3, [r4, #8]
    2ff2:	89a3      	ldrh	r3, [r4, #12]
    2ff4:	071b      	lsls	r3, r3, #28
    2ff6:	d531      	bpl.n	305c <__swbuf_r+0x8c>
    2ff8:	6923      	ldr	r3, [r4, #16]
    2ffa:	2b00      	cmp	r3, #0
    2ffc:	d02e      	beq.n	305c <__swbuf_r+0x8c>
    2ffe:	6823      	ldr	r3, [r4, #0]
    3000:	6922      	ldr	r2, [r4, #16]
    3002:	b2f7      	uxtb	r7, r6
    3004:	1a98      	subs	r0, r3, r2
    3006:	6963      	ldr	r3, [r4, #20]
    3008:	b2f6      	uxtb	r6, r6
    300a:	4298      	cmp	r0, r3
    300c:	db05      	blt.n	301a <__swbuf_r+0x4a>
    300e:	0021      	movs	r1, r4
    3010:	0028      	movs	r0, r5
    3012:	f000 f933 	bl	327c <_fflush_r>
    3016:	2800      	cmp	r0, #0
    3018:	d126      	bne.n	3068 <__swbuf_r+0x98>
    301a:	68a3      	ldr	r3, [r4, #8]
    301c:	3001      	adds	r0, #1
    301e:	3b01      	subs	r3, #1
    3020:	60a3      	str	r3, [r4, #8]
    3022:	6823      	ldr	r3, [r4, #0]
    3024:	1c5a      	adds	r2, r3, #1
    3026:	6022      	str	r2, [r4, #0]
    3028:	701f      	strb	r7, [r3, #0]
    302a:	6963      	ldr	r3, [r4, #20]
    302c:	4298      	cmp	r0, r3
    302e:	d004      	beq.n	303a <__swbuf_r+0x6a>
    3030:	89a3      	ldrh	r3, [r4, #12]
    3032:	07db      	lsls	r3, r3, #31
    3034:	d51a      	bpl.n	306c <__swbuf_r+0x9c>
    3036:	2e0a      	cmp	r6, #10
    3038:	d118      	bne.n	306c <__swbuf_r+0x9c>
    303a:	0021      	movs	r1, r4
    303c:	0028      	movs	r0, r5
    303e:	f000 f91d 	bl	327c <_fflush_r>
    3042:	2800      	cmp	r0, #0
    3044:	d012      	beq.n	306c <__swbuf_r+0x9c>
    3046:	e00f      	b.n	3068 <__swbuf_r+0x98>
    3048:	4b0a      	ldr	r3, [pc, #40]	; (3074 <__swbuf_r+0xa4>)
    304a:	429c      	cmp	r4, r3
    304c:	d101      	bne.n	3052 <__swbuf_r+0x82>
    304e:	68ac      	ldr	r4, [r5, #8]
    3050:	e7cd      	b.n	2fee <__swbuf_r+0x1e>
    3052:	4b09      	ldr	r3, [pc, #36]	; (3078 <__swbuf_r+0xa8>)
    3054:	429c      	cmp	r4, r3
    3056:	d1ca      	bne.n	2fee <__swbuf_r+0x1e>
    3058:	68ec      	ldr	r4, [r5, #12]
    305a:	e7c8      	b.n	2fee <__swbuf_r+0x1e>
    305c:	0021      	movs	r1, r4
    305e:	0028      	movs	r0, r5
    3060:	f000 f80c 	bl	307c <__swsetup_r>
    3064:	2800      	cmp	r0, #0
    3066:	d0ca      	beq.n	2ffe <__swbuf_r+0x2e>
    3068:	2601      	movs	r6, #1
    306a:	4276      	negs	r6, r6
    306c:	0030      	movs	r0, r6
    306e:	bdf8      	pop	{r3, r4, r5, r6, r7, pc}
    3070:	00003fe8 	.word	0x00003fe8
    3074:	00004008 	.word	0x00004008
    3078:	00003fc8 	.word	0x00003fc8

0000307c <__swsetup_r>:
    307c:	4b36      	ldr	r3, [pc, #216]	; (3158 <__swsetup_r+0xdc>)
    307e:	b570      	push	{r4, r5, r6, lr}
    3080:	681d      	ldr	r5, [r3, #0]
    3082:	0006      	movs	r6, r0
    3084:	000c      	movs	r4, r1
    3086:	2d00      	cmp	r5, #0
    3088:	d005      	beq.n	3096 <__swsetup_r+0x1a>
    308a:	69ab      	ldr	r3, [r5, #24]
    308c:	2b00      	cmp	r3, #0
    308e:	d102      	bne.n	3096 <__swsetup_r+0x1a>
    3090:	0028      	movs	r0, r5
    3092:	f000 f961 	bl	3358 <__sinit>
    3096:	4b31      	ldr	r3, [pc, #196]	; (315c <__swsetup_r+0xe0>)
    3098:	429c      	cmp	r4, r3
    309a:	d10f      	bne.n	30bc <__swsetup_r+0x40>
    309c:	686c      	ldr	r4, [r5, #4]
    309e:	230c      	movs	r3, #12
    30a0:	5ee2      	ldrsh	r2, [r4, r3]
    30a2:	b293      	uxth	r3, r2
    30a4:	0719      	lsls	r1, r3, #28
    30a6:	d42d      	bmi.n	3104 <__swsetup_r+0x88>
    30a8:	06d9      	lsls	r1, r3, #27
    30aa:	d411      	bmi.n	30d0 <__swsetup_r+0x54>
    30ac:	2309      	movs	r3, #9
    30ae:	2001      	movs	r0, #1
    30b0:	6033      	str	r3, [r6, #0]
    30b2:	3337      	adds	r3, #55	; 0x37
    30b4:	4313      	orrs	r3, r2
    30b6:	81a3      	strh	r3, [r4, #12]
    30b8:	4240      	negs	r0, r0
    30ba:	bd70      	pop	{r4, r5, r6, pc}
    30bc:	4b28      	ldr	r3, [pc, #160]	; (3160 <__swsetup_r+0xe4>)
    30be:	429c      	cmp	r4, r3
    30c0:	d101      	bne.n	30c6 <__swsetup_r+0x4a>
    30c2:	68ac      	ldr	r4, [r5, #8]
    30c4:	e7eb      	b.n	309e <__swsetup_r+0x22>
    30c6:	4b27      	ldr	r3, [pc, #156]	; (3164 <__swsetup_r+0xe8>)
    30c8:	429c      	cmp	r4, r3
    30ca:	d1e8      	bne.n	309e <__swsetup_r+0x22>
    30cc:	68ec      	ldr	r4, [r5, #12]
    30ce:	e7e6      	b.n	309e <__swsetup_r+0x22>
    30d0:	075b      	lsls	r3, r3, #29
    30d2:	d513      	bpl.n	30fc <__swsetup_r+0x80>
    30d4:	6b61      	ldr	r1, [r4, #52]	; 0x34
    30d6:	2900      	cmp	r1, #0
    30d8:	d008      	beq.n	30ec <__swsetup_r+0x70>
    30da:	0023      	movs	r3, r4
    30dc:	3344      	adds	r3, #68	; 0x44
    30de:	4299      	cmp	r1, r3
    30e0:	d002      	beq.n	30e8 <__swsetup_r+0x6c>
    30e2:	0030      	movs	r0, r6
    30e4:	f000 fa44 	bl	3570 <_free_r>
    30e8:	2300      	movs	r3, #0
    30ea:	6363      	str	r3, [r4, #52]	; 0x34
    30ec:	2224      	movs	r2, #36	; 0x24
    30ee:	89a3      	ldrh	r3, [r4, #12]
    30f0:	4393      	bics	r3, r2
    30f2:	81a3      	strh	r3, [r4, #12]
    30f4:	2300      	movs	r3, #0
    30f6:	6063      	str	r3, [r4, #4]
    30f8:	6923      	ldr	r3, [r4, #16]
    30fa:	6023      	str	r3, [r4, #0]
    30fc:	2308      	movs	r3, #8
    30fe:	89a2      	ldrh	r2, [r4, #12]
    3100:	4313      	orrs	r3, r2
    3102:	81a3      	strh	r3, [r4, #12]
    3104:	6923      	ldr	r3, [r4, #16]
    3106:	2b00      	cmp	r3, #0
    3108:	d10b      	bne.n	3122 <__swsetup_r+0xa6>
    310a:	21a0      	movs	r1, #160	; 0xa0
    310c:	2280      	movs	r2, #128	; 0x80
    310e:	89a3      	ldrh	r3, [r4, #12]
    3110:	0089      	lsls	r1, r1, #2
    3112:	0092      	lsls	r2, r2, #2
    3114:	400b      	ands	r3, r1
    3116:	4293      	cmp	r3, r2
    3118:	d003      	beq.n	3122 <__swsetup_r+0xa6>
    311a:	0021      	movs	r1, r4
    311c:	0030      	movs	r0, r6
    311e:	f000 f9d9 	bl	34d4 <__smakebuf_r>
    3122:	2301      	movs	r3, #1
    3124:	89a2      	ldrh	r2, [r4, #12]
    3126:	4013      	ands	r3, r2
    3128:	d011      	beq.n	314e <__swsetup_r+0xd2>
    312a:	2300      	movs	r3, #0
    312c:	60a3      	str	r3, [r4, #8]
    312e:	6963      	ldr	r3, [r4, #20]
    3130:	425b      	negs	r3, r3
    3132:	61a3      	str	r3, [r4, #24]
    3134:	2000      	movs	r0, #0
    3136:	6923      	ldr	r3, [r4, #16]
    3138:	4283      	cmp	r3, r0
    313a:	d1be      	bne.n	30ba <__swsetup_r+0x3e>
    313c:	230c      	movs	r3, #12
    313e:	5ee2      	ldrsh	r2, [r4, r3]
    3140:	0613      	lsls	r3, r2, #24
    3142:	d5ba      	bpl.n	30ba <__swsetup_r+0x3e>
    3144:	2340      	movs	r3, #64	; 0x40
    3146:	4313      	orrs	r3, r2
    3148:	81a3      	strh	r3, [r4, #12]
    314a:	3801      	subs	r0, #1
    314c:	e7b5      	b.n	30ba <__swsetup_r+0x3e>
    314e:	0792      	lsls	r2, r2, #30
    3150:	d400      	bmi.n	3154 <__swsetup_r+0xd8>
    3152:	6963      	ldr	r3, [r4, #20]
    3154:	60a3      	str	r3, [r4, #8]
    3156:	e7ed      	b.n	3134 <__swsetup_r+0xb8>
    3158:	20000014 	.word	0x20000014
    315c:	00003fe8 	.word	0x00003fe8
    3160:	00004008 	.word	0x00004008
    3164:	00003fc8 	.word	0x00003fc8

00003168 <__sflush_r>:
    3168:	b5f7      	push	{r0, r1, r2, r4, r5, r6, r7, lr}
    316a:	898a      	ldrh	r2, [r1, #12]
    316c:	0005      	movs	r5, r0
    316e:	000c      	movs	r4, r1
    3170:	0713      	lsls	r3, r2, #28
    3172:	d460      	bmi.n	3236 <__sflush_r+0xce>
    3174:	684b      	ldr	r3, [r1, #4]
    3176:	2b00      	cmp	r3, #0
    3178:	dc04      	bgt.n	3184 <__sflush_r+0x1c>
    317a:	6c0b      	ldr	r3, [r1, #64]	; 0x40
    317c:	2b00      	cmp	r3, #0
    317e:	dc01      	bgt.n	3184 <__sflush_r+0x1c>
    3180:	2000      	movs	r0, #0
    3182:	bdfe      	pop	{r1, r2, r3, r4, r5, r6, r7, pc}
    3184:	6ae7      	ldr	r7, [r4, #44]	; 0x2c
    3186:	2f00      	cmp	r7, #0
    3188:	d0fa      	beq.n	3180 <__sflush_r+0x18>
    318a:	2300      	movs	r3, #0
    318c:	682e      	ldr	r6, [r5, #0]
    318e:	602b      	str	r3, [r5, #0]
    3190:	2380      	movs	r3, #128	; 0x80
    3192:	015b      	lsls	r3, r3, #5
    3194:	401a      	ands	r2, r3
    3196:	d034      	beq.n	3202 <__sflush_r+0x9a>
    3198:	6d60      	ldr	r0, [r4, #84]	; 0x54
    319a:	89a3      	ldrh	r3, [r4, #12]
    319c:	075b      	lsls	r3, r3, #29
    319e:	d506      	bpl.n	31ae <__sflush_r+0x46>
    31a0:	6863      	ldr	r3, [r4, #4]
    31a2:	1ac0      	subs	r0, r0, r3
    31a4:	6b63      	ldr	r3, [r4, #52]	; 0x34
    31a6:	2b00      	cmp	r3, #0
    31a8:	d001      	beq.n	31ae <__sflush_r+0x46>
    31aa:	6c23      	ldr	r3, [r4, #64]	; 0x40
    31ac:	1ac0      	subs	r0, r0, r3
    31ae:	0002      	movs	r2, r0
    31b0:	6a21      	ldr	r1, [r4, #32]
    31b2:	2300      	movs	r3, #0
    31b4:	0028      	movs	r0, r5
    31b6:	6ae7      	ldr	r7, [r4, #44]	; 0x2c
    31b8:	47b8      	blx	r7
    31ba:	89a1      	ldrh	r1, [r4, #12]
    31bc:	1c43      	adds	r3, r0, #1
    31be:	d106      	bne.n	31ce <__sflush_r+0x66>
    31c0:	682b      	ldr	r3, [r5, #0]
    31c2:	2b1d      	cmp	r3, #29
    31c4:	d831      	bhi.n	322a <__sflush_r+0xc2>
    31c6:	4a2c      	ldr	r2, [pc, #176]	; (3278 <__sflush_r+0x110>)
    31c8:	40da      	lsrs	r2, r3
    31ca:	07d3      	lsls	r3, r2, #31
    31cc:	d52d      	bpl.n	322a <__sflush_r+0xc2>
    31ce:	2300      	movs	r3, #0
    31d0:	6063      	str	r3, [r4, #4]
    31d2:	6923      	ldr	r3, [r4, #16]
    31d4:	6023      	str	r3, [r4, #0]
    31d6:	04cb      	lsls	r3, r1, #19
    31d8:	d505      	bpl.n	31e6 <__sflush_r+0x7e>
    31da:	1c43      	adds	r3, r0, #1
    31dc:	d102      	bne.n	31e4 <__sflush_r+0x7c>
    31de:	682b      	ldr	r3, [r5, #0]
    31e0:	2b00      	cmp	r3, #0
    31e2:	d100      	bne.n	31e6 <__sflush_r+0x7e>
    31e4:	6560      	str	r0, [r4, #84]	; 0x54
    31e6:	6b61      	ldr	r1, [r4, #52]	; 0x34
    31e8:	602e      	str	r6, [r5, #0]
    31ea:	2900      	cmp	r1, #0
    31ec:	d0c8      	beq.n	3180 <__sflush_r+0x18>
    31ee:	0023      	movs	r3, r4
    31f0:	3344      	adds	r3, #68	; 0x44
    31f2:	4299      	cmp	r1, r3
    31f4:	d002      	beq.n	31fc <__sflush_r+0x94>
    31f6:	0028      	movs	r0, r5
    31f8:	f000 f9ba 	bl	3570 <_free_r>
    31fc:	2000      	movs	r0, #0
    31fe:	6360      	str	r0, [r4, #52]	; 0x34
    3200:	e7bf      	b.n	3182 <__sflush_r+0x1a>
    3202:	2301      	movs	r3, #1
    3204:	6a21      	ldr	r1, [r4, #32]
    3206:	0028      	movs	r0, r5
    3208:	47b8      	blx	r7
    320a:	1c43      	adds	r3, r0, #1
    320c:	d1c5      	bne.n	319a <__sflush_r+0x32>
    320e:	682b      	ldr	r3, [r5, #0]
    3210:	2b00      	cmp	r3, #0
    3212:	d0c2      	beq.n	319a <__sflush_r+0x32>
    3214:	2b1d      	cmp	r3, #29
    3216:	d001      	beq.n	321c <__sflush_r+0xb4>
    3218:	2b16      	cmp	r3, #22
    321a:	d101      	bne.n	3220 <__sflush_r+0xb8>
    321c:	602e      	str	r6, [r5, #0]
    321e:	e7af      	b.n	3180 <__sflush_r+0x18>
    3220:	2340      	movs	r3, #64	; 0x40
    3222:	89a2      	ldrh	r2, [r4, #12]
    3224:	4313      	orrs	r3, r2
    3226:	81a3      	strh	r3, [r4, #12]
    3228:	e7ab      	b.n	3182 <__sflush_r+0x1a>
    322a:	2340      	movs	r3, #64	; 0x40
    322c:	430b      	orrs	r3, r1
    322e:	2001      	movs	r0, #1
    3230:	81a3      	strh	r3, [r4, #12]
    3232:	4240      	negs	r0, r0
    3234:	e7a5      	b.n	3182 <__sflush_r+0x1a>
    3236:	690f      	ldr	r7, [r1, #16]
    3238:	2f00      	cmp	r7, #0
    323a:	d0a1      	beq.n	3180 <__sflush_r+0x18>
    323c:	680b      	ldr	r3, [r1, #0]
    323e:	600f      	str	r7, [r1, #0]
    3240:	1bdb      	subs	r3, r3, r7
    3242:	9301      	str	r3, [sp, #4]
    3244:	2300      	movs	r3, #0
    3246:	0792      	lsls	r2, r2, #30
    3248:	d100      	bne.n	324c <__sflush_r+0xe4>
    324a:	694b      	ldr	r3, [r1, #20]
    324c:	60a3      	str	r3, [r4, #8]
    324e:	9b01      	ldr	r3, [sp, #4]
    3250:	2b00      	cmp	r3, #0
    3252:	dc00      	bgt.n	3256 <__sflush_r+0xee>
    3254:	e794      	b.n	3180 <__sflush_r+0x18>
    3256:	9b01      	ldr	r3, [sp, #4]
    3258:	003a      	movs	r2, r7
    325a:	6a21      	ldr	r1, [r4, #32]
    325c:	0028      	movs	r0, r5
    325e:	6aa6      	ldr	r6, [r4, #40]	; 0x28
    3260:	47b0      	blx	r6
    3262:	2800      	cmp	r0, #0
    3264:	dc03      	bgt.n	326e <__sflush_r+0x106>
    3266:	2340      	movs	r3, #64	; 0x40
    3268:	89a2      	ldrh	r2, [r4, #12]
    326a:	4313      	orrs	r3, r2
    326c:	e7df      	b.n	322e <__sflush_r+0xc6>
    326e:	9b01      	ldr	r3, [sp, #4]
    3270:	183f      	adds	r7, r7, r0
    3272:	1a1b      	subs	r3, r3, r0
    3274:	9301      	str	r3, [sp, #4]
    3276:	e7ea      	b.n	324e <__sflush_r+0xe6>
    3278:	20400001 	.word	0x20400001

0000327c <_fflush_r>:
    327c:	690b      	ldr	r3, [r1, #16]
    327e:	b570      	push	{r4, r5, r6, lr}
    3280:	0005      	movs	r5, r0
    3282:	000c      	movs	r4, r1
    3284:	2b00      	cmp	r3, #0
    3286:	d101      	bne.n	328c <_fflush_r+0x10>
    3288:	2000      	movs	r0, #0
    328a:	bd70      	pop	{r4, r5, r6, pc}
    328c:	2800      	cmp	r0, #0
    328e:	d004      	beq.n	329a <_fflush_r+0x1e>
    3290:	6983      	ldr	r3, [r0, #24]
    3292:	2b00      	cmp	r3, #0
    3294:	d101      	bne.n	329a <_fflush_r+0x1e>
    3296:	f000 f85f 	bl	3358 <__sinit>
    329a:	4b0b      	ldr	r3, [pc, #44]	; (32c8 <_fflush_r+0x4c>)
    329c:	429c      	cmp	r4, r3
    329e:	d109      	bne.n	32b4 <_fflush_r+0x38>
    32a0:	686c      	ldr	r4, [r5, #4]
    32a2:	220c      	movs	r2, #12
    32a4:	5ea3      	ldrsh	r3, [r4, r2]
    32a6:	2b00      	cmp	r3, #0
    32a8:	d0ee      	beq.n	3288 <_fflush_r+0xc>
    32aa:	0021      	movs	r1, r4
    32ac:	0028      	movs	r0, r5
    32ae:	f7ff ff5b 	bl	3168 <__sflush_r>
    32b2:	e7ea      	b.n	328a <_fflush_r+0xe>
    32b4:	4b05      	ldr	r3, [pc, #20]	; (32cc <_fflush_r+0x50>)
    32b6:	429c      	cmp	r4, r3
    32b8:	d101      	bne.n	32be <_fflush_r+0x42>
    32ba:	68ac      	ldr	r4, [r5, #8]
    32bc:	e7f1      	b.n	32a2 <_fflush_r+0x26>
    32be:	4b04      	ldr	r3, [pc, #16]	; (32d0 <_fflush_r+0x54>)
    32c0:	429c      	cmp	r4, r3
    32c2:	d1ee      	bne.n	32a2 <_fflush_r+0x26>
    32c4:	68ec      	ldr	r4, [r5, #12]
    32c6:	e7ec      	b.n	32a2 <_fflush_r+0x26>
    32c8:	00003fe8 	.word	0x00003fe8
    32cc:	00004008 	.word	0x00004008
    32d0:	00003fc8 	.word	0x00003fc8

000032d4 <_cleanup_r>:
    32d4:	b510      	push	{r4, lr}
    32d6:	4902      	ldr	r1, [pc, #8]	; (32e0 <_cleanup_r+0xc>)
    32d8:	f000 f8b2 	bl	3440 <_fwalk_reent>
    32dc:	bd10      	pop	{r4, pc}
    32de:	46c0      	nop			; (mov r8, r8)
    32e0:	0000327d 	.word	0x0000327d

000032e4 <std.isra.0>:
    32e4:	2300      	movs	r3, #0
    32e6:	b510      	push	{r4, lr}
    32e8:	0004      	movs	r4, r0
    32ea:	6003      	str	r3, [r0, #0]
    32ec:	6043      	str	r3, [r0, #4]
    32ee:	6083      	str	r3, [r0, #8]
    32f0:	8181      	strh	r1, [r0, #12]
    32f2:	6643      	str	r3, [r0, #100]	; 0x64
    32f4:	81c2      	strh	r2, [r0, #14]
    32f6:	6103      	str	r3, [r0, #16]
    32f8:	6143      	str	r3, [r0, #20]
    32fa:	6183      	str	r3, [r0, #24]
    32fc:	0019      	movs	r1, r3
    32fe:	2208      	movs	r2, #8
    3300:	305c      	adds	r0, #92	; 0x5c
    3302:	f7ff fd23 	bl	2d4c <memset>
    3306:	4b05      	ldr	r3, [pc, #20]	; (331c <std.isra.0+0x38>)
    3308:	6224      	str	r4, [r4, #32]
    330a:	6263      	str	r3, [r4, #36]	; 0x24
    330c:	4b04      	ldr	r3, [pc, #16]	; (3320 <std.isra.0+0x3c>)
    330e:	62a3      	str	r3, [r4, #40]	; 0x28
    3310:	4b04      	ldr	r3, [pc, #16]	; (3324 <std.isra.0+0x40>)
    3312:	62e3      	str	r3, [r4, #44]	; 0x2c
    3314:	4b04      	ldr	r3, [pc, #16]	; (3328 <std.isra.0+0x44>)
    3316:	6323      	str	r3, [r4, #48]	; 0x30
    3318:	bd10      	pop	{r4, pc}
    331a:	46c0      	nop			; (mov r8, r8)
    331c:	00003c7d 	.word	0x00003c7d
    3320:	00003ca5 	.word	0x00003ca5
    3324:	00003cdd 	.word	0x00003cdd
    3328:	00003d09 	.word	0x00003d09

0000332c <__sfmoreglue>:
    332c:	b570      	push	{r4, r5, r6, lr}
    332e:	2568      	movs	r5, #104	; 0x68
    3330:	1e4a      	subs	r2, r1, #1
    3332:	4355      	muls	r5, r2
    3334:	000e      	movs	r6, r1
    3336:	0029      	movs	r1, r5
    3338:	3174      	adds	r1, #116	; 0x74
    333a:	f000 f963 	bl	3604 <_malloc_r>
    333e:	1e04      	subs	r4, r0, #0
    3340:	d008      	beq.n	3354 <__sfmoreglue+0x28>
    3342:	2100      	movs	r1, #0
    3344:	002a      	movs	r2, r5
    3346:	6001      	str	r1, [r0, #0]
    3348:	6046      	str	r6, [r0, #4]
    334a:	300c      	adds	r0, #12
    334c:	60a0      	str	r0, [r4, #8]
    334e:	3268      	adds	r2, #104	; 0x68
    3350:	f7ff fcfc 	bl	2d4c <memset>
    3354:	0020      	movs	r0, r4
    3356:	bd70      	pop	{r4, r5, r6, pc}

00003358 <__sinit>:
    3358:	6983      	ldr	r3, [r0, #24]
    335a:	b513      	push	{r0, r1, r4, lr}
    335c:	0004      	movs	r4, r0
    335e:	2b00      	cmp	r3, #0
    3360:	d128      	bne.n	33b4 <__sinit+0x5c>
    3362:	6483      	str	r3, [r0, #72]	; 0x48
    3364:	64c3      	str	r3, [r0, #76]	; 0x4c
    3366:	6503      	str	r3, [r0, #80]	; 0x50
    3368:	4b13      	ldr	r3, [pc, #76]	; (33b8 <__sinit+0x60>)
    336a:	4a14      	ldr	r2, [pc, #80]	; (33bc <__sinit+0x64>)
    336c:	681b      	ldr	r3, [r3, #0]
    336e:	6282      	str	r2, [r0, #40]	; 0x28
    3370:	9301      	str	r3, [sp, #4]
    3372:	4298      	cmp	r0, r3
    3374:	d101      	bne.n	337a <__sinit+0x22>
    3376:	2301      	movs	r3, #1
    3378:	6183      	str	r3, [r0, #24]
    337a:	0020      	movs	r0, r4
    337c:	f000 f820 	bl	33c0 <__sfp>
    3380:	6060      	str	r0, [r4, #4]
    3382:	0020      	movs	r0, r4
    3384:	f000 f81c 	bl	33c0 <__sfp>
    3388:	60a0      	str	r0, [r4, #8]
    338a:	0020      	movs	r0, r4
    338c:	f000 f818 	bl	33c0 <__sfp>
    3390:	2200      	movs	r2, #0
    3392:	60e0      	str	r0, [r4, #12]
    3394:	2104      	movs	r1, #4
    3396:	6860      	ldr	r0, [r4, #4]
    3398:	f7ff ffa4 	bl	32e4 <std.isra.0>
    339c:	2201      	movs	r2, #1
    339e:	2109      	movs	r1, #9
    33a0:	68a0      	ldr	r0, [r4, #8]
    33a2:	f7ff ff9f 	bl	32e4 <std.isra.0>
    33a6:	2202      	movs	r2, #2
    33a8:	2112      	movs	r1, #18
    33aa:	68e0      	ldr	r0, [r4, #12]
    33ac:	f7ff ff9a 	bl	32e4 <std.isra.0>
    33b0:	2301      	movs	r3, #1
    33b2:	61a3      	str	r3, [r4, #24]
    33b4:	bd13      	pop	{r0, r1, r4, pc}
    33b6:	46c0      	nop			; (mov r8, r8)
    33b8:	00003fc4 	.word	0x00003fc4
    33bc:	000032d5 	.word	0x000032d5

000033c0 <__sfp>:
    33c0:	b5f8      	push	{r3, r4, r5, r6, r7, lr}
    33c2:	4b1e      	ldr	r3, [pc, #120]	; (343c <__sfp+0x7c>)
    33c4:	0007      	movs	r7, r0
    33c6:	681e      	ldr	r6, [r3, #0]
    33c8:	69b3      	ldr	r3, [r6, #24]
    33ca:	2b00      	cmp	r3, #0
    33cc:	d102      	bne.n	33d4 <__sfp+0x14>
    33ce:	0030      	movs	r0, r6
    33d0:	f7ff ffc2 	bl	3358 <__sinit>
    33d4:	3648      	adds	r6, #72	; 0x48
    33d6:	68b4      	ldr	r4, [r6, #8]
    33d8:	6873      	ldr	r3, [r6, #4]
    33da:	3b01      	subs	r3, #1
    33dc:	d504      	bpl.n	33e8 <__sfp+0x28>
    33de:	6833      	ldr	r3, [r6, #0]
    33e0:	2b00      	cmp	r3, #0
    33e2:	d007      	beq.n	33f4 <__sfp+0x34>
    33e4:	6836      	ldr	r6, [r6, #0]
    33e6:	e7f6      	b.n	33d6 <__sfp+0x16>
    33e8:	220c      	movs	r2, #12
    33ea:	5ea5      	ldrsh	r5, [r4, r2]
    33ec:	2d00      	cmp	r5, #0
    33ee:	d00d      	beq.n	340c <__sfp+0x4c>
    33f0:	3468      	adds	r4, #104	; 0x68
    33f2:	e7f2      	b.n	33da <__sfp+0x1a>
    33f4:	2104      	movs	r1, #4
    33f6:	0038      	movs	r0, r7
    33f8:	f7ff ff98 	bl	332c <__sfmoreglue>
    33fc:	6030      	str	r0, [r6, #0]
    33fe:	2800      	cmp	r0, #0
    3400:	d1f0      	bne.n	33e4 <__sfp+0x24>
    3402:	230c      	movs	r3, #12
    3404:	0004      	movs	r4, r0
    3406:	603b      	str	r3, [r7, #0]
    3408:	0020      	movs	r0, r4
    340a:	bdf8      	pop	{r3, r4, r5, r6, r7, pc}
    340c:	2301      	movs	r3, #1
    340e:	0020      	movs	r0, r4
    3410:	425b      	negs	r3, r3
    3412:	81e3      	strh	r3, [r4, #14]
    3414:	3302      	adds	r3, #2
    3416:	81a3      	strh	r3, [r4, #12]
    3418:	6665      	str	r5, [r4, #100]	; 0x64
    341a:	6025      	str	r5, [r4, #0]
    341c:	60a5      	str	r5, [r4, #8]
    341e:	6065      	str	r5, [r4, #4]
    3420:	6125      	str	r5, [r4, #16]
    3422:	6165      	str	r5, [r4, #20]
    3424:	61a5      	str	r5, [r4, #24]
    3426:	2208      	movs	r2, #8
    3428:	0029      	movs	r1, r5
    342a:	305c      	adds	r0, #92	; 0x5c
    342c:	f7ff fc8e 	bl	2d4c <memset>
    3430:	6365      	str	r5, [r4, #52]	; 0x34
    3432:	63a5      	str	r5, [r4, #56]	; 0x38
    3434:	64a5      	str	r5, [r4, #72]	; 0x48
    3436:	64e5      	str	r5, [r4, #76]	; 0x4c
    3438:	e7e6      	b.n	3408 <__sfp+0x48>
    343a:	46c0      	nop			; (mov r8, r8)
    343c:	00003fc4 	.word	0x00003fc4

00003440 <_fwalk_reent>:
    3440:	b5f7      	push	{r0, r1, r2, r4, r5, r6, r7, lr}
    3442:	0004      	movs	r4, r0
    3444:	0007      	movs	r7, r0
    3446:	2600      	movs	r6, #0
    3448:	9101      	str	r1, [sp, #4]
    344a:	3448      	adds	r4, #72	; 0x48
    344c:	2c00      	cmp	r4, #0
    344e:	d101      	bne.n	3454 <_fwalk_reent+0x14>
    3450:	0030      	movs	r0, r6
    3452:	bdfe      	pop	{r1, r2, r3, r4, r5, r6, r7, pc}
    3454:	6863      	ldr	r3, [r4, #4]
    3456:	68a5      	ldr	r5, [r4, #8]
    3458:	9300      	str	r3, [sp, #0]
    345a:	9b00      	ldr	r3, [sp, #0]
    345c:	3b01      	subs	r3, #1
    345e:	9300      	str	r3, [sp, #0]
    3460:	d501      	bpl.n	3466 <_fwalk_reent+0x26>
    3462:	6824      	ldr	r4, [r4, #0]
    3464:	e7f2      	b.n	344c <_fwalk_reent+0xc>
    3466:	89ab      	ldrh	r3, [r5, #12]
    3468:	2b01      	cmp	r3, #1
    346a:	d908      	bls.n	347e <_fwalk_reent+0x3e>
    346c:	220e      	movs	r2, #14
    346e:	5eab      	ldrsh	r3, [r5, r2]
    3470:	3301      	adds	r3, #1
    3472:	d004      	beq.n	347e <_fwalk_reent+0x3e>
    3474:	0029      	movs	r1, r5
    3476:	0038      	movs	r0, r7
    3478:	9b01      	ldr	r3, [sp, #4]
    347a:	4798      	blx	r3
    347c:	4306      	orrs	r6, r0
    347e:	3568      	adds	r5, #104	; 0x68
    3480:	e7eb      	b.n	345a <_fwalk_reent+0x1a>
	...

00003484 <__swhatbuf_r>:
    3484:	b570      	push	{r4, r5, r6, lr}
    3486:	000e      	movs	r6, r1
    3488:	001d      	movs	r5, r3
    348a:	230e      	movs	r3, #14
    348c:	5ec9      	ldrsh	r1, [r1, r3]
    348e:	b090      	sub	sp, #64	; 0x40
    3490:	0014      	movs	r4, r2
    3492:	2900      	cmp	r1, #0
    3494:	da07      	bge.n	34a6 <__swhatbuf_r+0x22>
    3496:	2300      	movs	r3, #0
    3498:	602b      	str	r3, [r5, #0]
    349a:	89b3      	ldrh	r3, [r6, #12]
    349c:	061b      	lsls	r3, r3, #24
    349e:	d411      	bmi.n	34c4 <__swhatbuf_r+0x40>
    34a0:	2380      	movs	r3, #128	; 0x80
    34a2:	00db      	lsls	r3, r3, #3
    34a4:	e00f      	b.n	34c6 <__swhatbuf_r+0x42>
    34a6:	aa01      	add	r2, sp, #4
    34a8:	f000 fc5a 	bl	3d60 <_fstat_r>
    34ac:	2800      	cmp	r0, #0
    34ae:	dbf2      	blt.n	3496 <__swhatbuf_r+0x12>
    34b0:	22f0      	movs	r2, #240	; 0xf0
    34b2:	9b02      	ldr	r3, [sp, #8]
    34b4:	0212      	lsls	r2, r2, #8
    34b6:	4013      	ands	r3, r2
    34b8:	4a05      	ldr	r2, [pc, #20]	; (34d0 <__swhatbuf_r+0x4c>)
    34ba:	189b      	adds	r3, r3, r2
    34bc:	425a      	negs	r2, r3
    34be:	4153      	adcs	r3, r2
    34c0:	602b      	str	r3, [r5, #0]
    34c2:	e7ed      	b.n	34a0 <__swhatbuf_r+0x1c>
    34c4:	2340      	movs	r3, #64	; 0x40
    34c6:	2000      	movs	r0, #0
    34c8:	6023      	str	r3, [r4, #0]
    34ca:	b010      	add	sp, #64	; 0x40
    34cc:	bd70      	pop	{r4, r5, r6, pc}
    34ce:	46c0      	nop			; (mov r8, r8)
    34d0:	ffffe000 	.word	0xffffe000

000034d4 <__smakebuf_r>:
    34d4:	b5f7      	push	{r0, r1, r2, r4, r5, r6, r7, lr}
    34d6:	2602      	movs	r6, #2
    34d8:	898b      	ldrh	r3, [r1, #12]
    34da:	0005      	movs	r5, r0
    34dc:	000c      	movs	r4, r1
    34de:	4233      	tst	r3, r6
    34e0:	d006      	beq.n	34f0 <__smakebuf_r+0x1c>
    34e2:	0023      	movs	r3, r4
    34e4:	3347      	adds	r3, #71	; 0x47
    34e6:	6023      	str	r3, [r4, #0]
    34e8:	6123      	str	r3, [r4, #16]
    34ea:	2301      	movs	r3, #1
    34ec:	6163      	str	r3, [r4, #20]
    34ee:	bdf7      	pop	{r0, r1, r2, r4, r5, r6, r7, pc}
    34f0:	ab01      	add	r3, sp, #4
    34f2:	466a      	mov	r2, sp
    34f4:	f7ff ffc6 	bl	3484 <__swhatbuf_r>
    34f8:	9900      	ldr	r1, [sp, #0]
    34fa:	0007      	movs	r7, r0
    34fc:	0028      	movs	r0, r5
    34fe:	f000 f881 	bl	3604 <_malloc_r>
    3502:	2800      	cmp	r0, #0
    3504:	d108      	bne.n	3518 <__smakebuf_r+0x44>
    3506:	220c      	movs	r2, #12
    3508:	5ea3      	ldrsh	r3, [r4, r2]
    350a:	059a      	lsls	r2, r3, #22
    350c:	d4ef      	bmi.n	34ee <__smakebuf_r+0x1a>
    350e:	2203      	movs	r2, #3
    3510:	4393      	bics	r3, r2
    3512:	431e      	orrs	r6, r3
    3514:	81a6      	strh	r6, [r4, #12]
    3516:	e7e4      	b.n	34e2 <__smakebuf_r+0xe>
    3518:	4b0f      	ldr	r3, [pc, #60]	; (3558 <__smakebuf_r+0x84>)
    351a:	62ab      	str	r3, [r5, #40]	; 0x28
    351c:	2380      	movs	r3, #128	; 0x80
    351e:	89a2      	ldrh	r2, [r4, #12]
    3520:	6020      	str	r0, [r4, #0]
    3522:	4313      	orrs	r3, r2
    3524:	81a3      	strh	r3, [r4, #12]
    3526:	9b00      	ldr	r3, [sp, #0]
    3528:	6120      	str	r0, [r4, #16]
    352a:	6163      	str	r3, [r4, #20]
    352c:	9b01      	ldr	r3, [sp, #4]
    352e:	2b00      	cmp	r3, #0
    3530:	d00d      	beq.n	354e <__smakebuf_r+0x7a>
    3532:	230e      	movs	r3, #14
    3534:	5ee1      	ldrsh	r1, [r4, r3]
    3536:	0028      	movs	r0, r5
    3538:	f000 fc24 	bl	3d84 <_isatty_r>
    353c:	2800      	cmp	r0, #0
    353e:	d006      	beq.n	354e <__smakebuf_r+0x7a>
    3540:	2203      	movs	r2, #3
    3542:	89a3      	ldrh	r3, [r4, #12]
    3544:	4393      	bics	r3, r2
    3546:	001a      	movs	r2, r3
    3548:	2301      	movs	r3, #1
    354a:	4313      	orrs	r3, r2
    354c:	81a3      	strh	r3, [r4, #12]
    354e:	89a0      	ldrh	r0, [r4, #12]
    3550:	4338      	orrs	r0, r7
    3552:	81a0      	strh	r0, [r4, #12]
    3554:	e7cb      	b.n	34ee <__smakebuf_r+0x1a>
    3556:	46c0      	nop			; (mov r8, r8)
    3558:	000032d5 	.word	0x000032d5

0000355c <malloc>:
    355c:	b510      	push	{r4, lr}
    355e:	4b03      	ldr	r3, [pc, #12]	; (356c <malloc+0x10>)
    3560:	0001      	movs	r1, r0
    3562:	6818      	ldr	r0, [r3, #0]
    3564:	f000 f84e 	bl	3604 <_malloc_r>
    3568:	bd10      	pop	{r4, pc}
    356a:	46c0      	nop			; (mov r8, r8)
    356c:	20000014 	.word	0x20000014

00003570 <_free_r>:
    3570:	b570      	push	{r4, r5, r6, lr}
    3572:	0005      	movs	r5, r0
    3574:	2900      	cmp	r1, #0
    3576:	d010      	beq.n	359a <_free_r+0x2a>
    3578:	1f0c      	subs	r4, r1, #4
    357a:	6823      	ldr	r3, [r4, #0]
    357c:	2b00      	cmp	r3, #0
    357e:	da00      	bge.n	3582 <_free_r+0x12>
    3580:	18e4      	adds	r4, r4, r3
    3582:	0028      	movs	r0, r5
    3584:	f000 fc2f 	bl	3de6 <__malloc_lock>
    3588:	4a1d      	ldr	r2, [pc, #116]	; (3600 <_free_r+0x90>)
    358a:	6813      	ldr	r3, [r2, #0]
    358c:	2b00      	cmp	r3, #0
    358e:	d105      	bne.n	359c <_free_r+0x2c>
    3590:	6063      	str	r3, [r4, #4]
    3592:	6014      	str	r4, [r2, #0]
    3594:	0028      	movs	r0, r5
    3596:	f000 fc27 	bl	3de8 <__malloc_unlock>
    359a:	bd70      	pop	{r4, r5, r6, pc}
    359c:	42a3      	cmp	r3, r4
    359e:	d909      	bls.n	35b4 <_free_r+0x44>
    35a0:	6821      	ldr	r1, [r4, #0]
    35a2:	1860      	adds	r0, r4, r1
    35a4:	4283      	cmp	r3, r0
    35a6:	d1f3      	bne.n	3590 <_free_r+0x20>
    35a8:	6818      	ldr	r0, [r3, #0]
    35aa:	685b      	ldr	r3, [r3, #4]
    35ac:	1841      	adds	r1, r0, r1
    35ae:	6021      	str	r1, [r4, #0]
    35b0:	e7ee      	b.n	3590 <_free_r+0x20>
    35b2:	0013      	movs	r3, r2
    35b4:	685a      	ldr	r2, [r3, #4]
    35b6:	2a00      	cmp	r2, #0
    35b8:	d001      	beq.n	35be <_free_r+0x4e>
    35ba:	42a2      	cmp	r2, r4
    35bc:	d9f9      	bls.n	35b2 <_free_r+0x42>
    35be:	6819      	ldr	r1, [r3, #0]
    35c0:	1858      	adds	r0, r3, r1
    35c2:	42a0      	cmp	r0, r4
    35c4:	d10b      	bne.n	35de <_free_r+0x6e>
    35c6:	6820      	ldr	r0, [r4, #0]
    35c8:	1809      	adds	r1, r1, r0
    35ca:	1858      	adds	r0, r3, r1
    35cc:	6019      	str	r1, [r3, #0]
    35ce:	4282      	cmp	r2, r0
    35d0:	d1e0      	bne.n	3594 <_free_r+0x24>
    35d2:	6810      	ldr	r0, [r2, #0]
    35d4:	6852      	ldr	r2, [r2, #4]
    35d6:	1841      	adds	r1, r0, r1
    35d8:	6019      	str	r1, [r3, #0]
    35da:	605a      	str	r2, [r3, #4]
    35dc:	e7da      	b.n	3594 <_free_r+0x24>
    35de:	42a0      	cmp	r0, r4
    35e0:	d902      	bls.n	35e8 <_free_r+0x78>
    35e2:	230c      	movs	r3, #12
    35e4:	602b      	str	r3, [r5, #0]
    35e6:	e7d5      	b.n	3594 <_free_r+0x24>
    35e8:	6821      	ldr	r1, [r4, #0]
    35ea:	1860      	adds	r0, r4, r1
    35ec:	4282      	cmp	r2, r0
    35ee:	d103      	bne.n	35f8 <_free_r+0x88>
    35f0:	6810      	ldr	r0, [r2, #0]
    35f2:	6852      	ldr	r2, [r2, #4]
    35f4:	1841      	adds	r1, r0, r1
    35f6:	6021      	str	r1, [r4, #0]
    35f8:	6062      	str	r2, [r4, #4]
    35fa:	605c      	str	r4, [r3, #4]
    35fc:	e7ca      	b.n	3594 <_free_r+0x24>
    35fe:	46c0      	nop			; (mov r8, r8)
    3600:	200000c8 	.word	0x200000c8

00003604 <_malloc_r>:
    3604:	2303      	movs	r3, #3
    3606:	b570      	push	{r4, r5, r6, lr}
    3608:	1ccd      	adds	r5, r1, #3
    360a:	439d      	bics	r5, r3
    360c:	3508      	adds	r5, #8
    360e:	0006      	movs	r6, r0
    3610:	2d0c      	cmp	r5, #12
    3612:	d21e      	bcs.n	3652 <_malloc_r+0x4e>
    3614:	250c      	movs	r5, #12
    3616:	42a9      	cmp	r1, r5
    3618:	d81d      	bhi.n	3656 <_malloc_r+0x52>
    361a:	0030      	movs	r0, r6
    361c:	f000 fbe3 	bl	3de6 <__malloc_lock>
    3620:	4a25      	ldr	r2, [pc, #148]	; (36b8 <_malloc_r+0xb4>)
    3622:	6814      	ldr	r4, [r2, #0]
    3624:	0021      	movs	r1, r4
    3626:	2900      	cmp	r1, #0
    3628:	d119      	bne.n	365e <_malloc_r+0x5a>
    362a:	4c24      	ldr	r4, [pc, #144]	; (36bc <_malloc_r+0xb8>)
    362c:	6823      	ldr	r3, [r4, #0]
    362e:	2b00      	cmp	r3, #0
    3630:	d103      	bne.n	363a <_malloc_r+0x36>
    3632:	0030      	movs	r0, r6
    3634:	f000 fb10 	bl	3c58 <_sbrk_r>
    3638:	6020      	str	r0, [r4, #0]
    363a:	0029      	movs	r1, r5
    363c:	0030      	movs	r0, r6
    363e:	f000 fb0b 	bl	3c58 <_sbrk_r>
    3642:	1c43      	adds	r3, r0, #1
    3644:	d12c      	bne.n	36a0 <_malloc_r+0x9c>
    3646:	230c      	movs	r3, #12
    3648:	0030      	movs	r0, r6
    364a:	6033      	str	r3, [r6, #0]
    364c:	f000 fbcc 	bl	3de8 <__malloc_unlock>
    3650:	e003      	b.n	365a <_malloc_r+0x56>
    3652:	2d00      	cmp	r5, #0
    3654:	dadf      	bge.n	3616 <_malloc_r+0x12>
    3656:	230c      	movs	r3, #12
    3658:	6033      	str	r3, [r6, #0]
    365a:	2000      	movs	r0, #0
    365c:	bd70      	pop	{r4, r5, r6, pc}
    365e:	680b      	ldr	r3, [r1, #0]
    3660:	1b5b      	subs	r3, r3, r5
    3662:	d41a      	bmi.n	369a <_malloc_r+0x96>
    3664:	2b0b      	cmp	r3, #11
    3666:	d903      	bls.n	3670 <_malloc_r+0x6c>
    3668:	600b      	str	r3, [r1, #0]
    366a:	18cc      	adds	r4, r1, r3
    366c:	6025      	str	r5, [r4, #0]
    366e:	e003      	b.n	3678 <_malloc_r+0x74>
    3670:	428c      	cmp	r4, r1
    3672:	d10e      	bne.n	3692 <_malloc_r+0x8e>
    3674:	6863      	ldr	r3, [r4, #4]
    3676:	6013      	str	r3, [r2, #0]
    3678:	0030      	movs	r0, r6
    367a:	f000 fbb5 	bl	3de8 <__malloc_unlock>
    367e:	0020      	movs	r0, r4
    3680:	2207      	movs	r2, #7
    3682:	300b      	adds	r0, #11
    3684:	1d23      	adds	r3, r4, #4
    3686:	4390      	bics	r0, r2
    3688:	1ac3      	subs	r3, r0, r3
    368a:	d0e7      	beq.n	365c <_malloc_r+0x58>
    368c:	425a      	negs	r2, r3
    368e:	50e2      	str	r2, [r4, r3]
    3690:	e7e4      	b.n	365c <_malloc_r+0x58>
    3692:	684b      	ldr	r3, [r1, #4]
    3694:	6063      	str	r3, [r4, #4]
    3696:	000c      	movs	r4, r1
    3698:	e7ee      	b.n	3678 <_malloc_r+0x74>
    369a:	000c      	movs	r4, r1
    369c:	6849      	ldr	r1, [r1, #4]
    369e:	e7c2      	b.n	3626 <_malloc_r+0x22>
    36a0:	2303      	movs	r3, #3
    36a2:	1cc4      	adds	r4, r0, #3
    36a4:	439c      	bics	r4, r3
    36a6:	42a0      	cmp	r0, r4
    36a8:	d0e0      	beq.n	366c <_malloc_r+0x68>
    36aa:	1a21      	subs	r1, r4, r0
    36ac:	0030      	movs	r0, r6
    36ae:	f000 fad3 	bl	3c58 <_sbrk_r>
    36b2:	1c43      	adds	r3, r0, #1
    36b4:	d1da      	bne.n	366c <_malloc_r+0x68>
    36b6:	e7c6      	b.n	3646 <_malloc_r+0x42>
    36b8:	200000c8 	.word	0x200000c8
    36bc:	200000cc 	.word	0x200000cc

000036c0 <__sfputc_r>:
    36c0:	6893      	ldr	r3, [r2, #8]
    36c2:	b510      	push	{r4, lr}
    36c4:	3b01      	subs	r3, #1
    36c6:	6093      	str	r3, [r2, #8]
    36c8:	2b00      	cmp	r3, #0
    36ca:	da05      	bge.n	36d8 <__sfputc_r+0x18>
    36cc:	6994      	ldr	r4, [r2, #24]
    36ce:	42a3      	cmp	r3, r4
    36d0:	db08      	blt.n	36e4 <__sfputc_r+0x24>
    36d2:	b2cb      	uxtb	r3, r1
    36d4:	2b0a      	cmp	r3, #10
    36d6:	d005      	beq.n	36e4 <__sfputc_r+0x24>
    36d8:	6813      	ldr	r3, [r2, #0]
    36da:	1c58      	adds	r0, r3, #1
    36dc:	6010      	str	r0, [r2, #0]
    36de:	7019      	strb	r1, [r3, #0]
    36e0:	b2c8      	uxtb	r0, r1
    36e2:	bd10      	pop	{r4, pc}
    36e4:	f7ff fc74 	bl	2fd0 <__swbuf_r>
    36e8:	e7fb      	b.n	36e2 <__sfputc_r+0x22>

000036ea <__sfputs_r>:
    36ea:	b5f8      	push	{r3, r4, r5, r6, r7, lr}
    36ec:	0006      	movs	r6, r0
    36ee:	000f      	movs	r7, r1
    36f0:	0014      	movs	r4, r2
    36f2:	18d5      	adds	r5, r2, r3
    36f4:	42ac      	cmp	r4, r5
    36f6:	d101      	bne.n	36fc <__sfputs_r+0x12>
    36f8:	2000      	movs	r0, #0
    36fa:	e007      	b.n	370c <__sfputs_r+0x22>
    36fc:	7821      	ldrb	r1, [r4, #0]
    36fe:	003a      	movs	r2, r7
    3700:	0030      	movs	r0, r6
    3702:	f7ff ffdd 	bl	36c0 <__sfputc_r>
    3706:	3401      	adds	r4, #1
    3708:	1c43      	adds	r3, r0, #1
    370a:	d1f3      	bne.n	36f4 <__sfputs_r+0xa>
    370c:	bdf8      	pop	{r3, r4, r5, r6, r7, pc}
	...

00003710 <_vfiprintf_r>:
    3710:	b5f0      	push	{r4, r5, r6, r7, lr}
    3712:	b09f      	sub	sp, #124	; 0x7c
    3714:	0006      	movs	r6, r0
    3716:	000f      	movs	r7, r1
    3718:	0014      	movs	r4, r2
    371a:	9305      	str	r3, [sp, #20]
    371c:	2800      	cmp	r0, #0
    371e:	d004      	beq.n	372a <_vfiprintf_r+0x1a>
    3720:	6983      	ldr	r3, [r0, #24]
    3722:	2b00      	cmp	r3, #0
    3724:	d101      	bne.n	372a <_vfiprintf_r+0x1a>
    3726:	f7ff fe17 	bl	3358 <__sinit>
    372a:	4b7f      	ldr	r3, [pc, #508]	; (3928 <_vfiprintf_r+0x218>)
    372c:	429f      	cmp	r7, r3
    372e:	d15c      	bne.n	37ea <_vfiprintf_r+0xda>
    3730:	6877      	ldr	r7, [r6, #4]
    3732:	89bb      	ldrh	r3, [r7, #12]
    3734:	071b      	lsls	r3, r3, #28
    3736:	d562      	bpl.n	37fe <_vfiprintf_r+0xee>
    3738:	693b      	ldr	r3, [r7, #16]
    373a:	2b00      	cmp	r3, #0
    373c:	d05f      	beq.n	37fe <_vfiprintf_r+0xee>
    373e:	2300      	movs	r3, #0
    3740:	ad06      	add	r5, sp, #24
    3742:	616b      	str	r3, [r5, #20]
    3744:	3320      	adds	r3, #32
    3746:	766b      	strb	r3, [r5, #25]
    3748:	3310      	adds	r3, #16
    374a:	76ab      	strb	r3, [r5, #26]
    374c:	9402      	str	r4, [sp, #8]
    374e:	9c02      	ldr	r4, [sp, #8]
    3750:	7823      	ldrb	r3, [r4, #0]
    3752:	2b00      	cmp	r3, #0
    3754:	d15d      	bne.n	3812 <_vfiprintf_r+0x102>
    3756:	9b02      	ldr	r3, [sp, #8]
    3758:	1ae3      	subs	r3, r4, r3
    375a:	9304      	str	r3, [sp, #16]
    375c:	d00d      	beq.n	377a <_vfiprintf_r+0x6a>
    375e:	9b04      	ldr	r3, [sp, #16]
    3760:	9a02      	ldr	r2, [sp, #8]
    3762:	0039      	movs	r1, r7
    3764:	0030      	movs	r0, r6
    3766:	f7ff ffc0 	bl	36ea <__sfputs_r>
    376a:	1c43      	adds	r3, r0, #1
    376c:	d100      	bne.n	3770 <_vfiprintf_r+0x60>
    376e:	e0cc      	b.n	390a <_vfiprintf_r+0x1fa>
    3770:	696a      	ldr	r2, [r5, #20]
    3772:	9b04      	ldr	r3, [sp, #16]
    3774:	4694      	mov	ip, r2
    3776:	4463      	add	r3, ip
    3778:	616b      	str	r3, [r5, #20]
    377a:	7823      	ldrb	r3, [r4, #0]
    377c:	2b00      	cmp	r3, #0
    377e:	d100      	bne.n	3782 <_vfiprintf_r+0x72>
    3780:	e0c3      	b.n	390a <_vfiprintf_r+0x1fa>
    3782:	2201      	movs	r2, #1
    3784:	2300      	movs	r3, #0
    3786:	4252      	negs	r2, r2
    3788:	606a      	str	r2, [r5, #4]
    378a:	a902      	add	r1, sp, #8
    378c:	3254      	adds	r2, #84	; 0x54
    378e:	1852      	adds	r2, r2, r1
    3790:	3401      	adds	r4, #1
    3792:	602b      	str	r3, [r5, #0]
    3794:	60eb      	str	r3, [r5, #12]
    3796:	60ab      	str	r3, [r5, #8]
    3798:	7013      	strb	r3, [r2, #0]
    379a:	65ab      	str	r3, [r5, #88]	; 0x58
    379c:	7821      	ldrb	r1, [r4, #0]
    379e:	2205      	movs	r2, #5
    37a0:	4862      	ldr	r0, [pc, #392]	; (392c <_vfiprintf_r+0x21c>)
    37a2:	f000 fb15 	bl	3dd0 <memchr>
    37a6:	1c63      	adds	r3, r4, #1
    37a8:	469c      	mov	ip, r3
    37aa:	2800      	cmp	r0, #0
    37ac:	d135      	bne.n	381a <_vfiprintf_r+0x10a>
    37ae:	6829      	ldr	r1, [r5, #0]
    37b0:	06cb      	lsls	r3, r1, #27
    37b2:	d504      	bpl.n	37be <_vfiprintf_r+0xae>
    37b4:	2353      	movs	r3, #83	; 0x53
    37b6:	aa02      	add	r2, sp, #8
    37b8:	3020      	adds	r0, #32
    37ba:	189b      	adds	r3, r3, r2
    37bc:	7018      	strb	r0, [r3, #0]
    37be:	070b      	lsls	r3, r1, #28
    37c0:	d504      	bpl.n	37cc <_vfiprintf_r+0xbc>
    37c2:	2353      	movs	r3, #83	; 0x53
    37c4:	202b      	movs	r0, #43	; 0x2b
    37c6:	aa02      	add	r2, sp, #8
    37c8:	189b      	adds	r3, r3, r2
    37ca:	7018      	strb	r0, [r3, #0]
    37cc:	7823      	ldrb	r3, [r4, #0]
    37ce:	2b2a      	cmp	r3, #42	; 0x2a
    37d0:	d02c      	beq.n	382c <_vfiprintf_r+0x11c>
    37d2:	2000      	movs	r0, #0
    37d4:	210a      	movs	r1, #10
    37d6:	9b09      	ldr	r3, [sp, #36]	; 0x24
    37d8:	7822      	ldrb	r2, [r4, #0]
    37da:	3a30      	subs	r2, #48	; 0x30
    37dc:	2a09      	cmp	r2, #9
    37de:	d800      	bhi.n	37e2 <_vfiprintf_r+0xd2>
    37e0:	e06b      	b.n	38ba <_vfiprintf_r+0x1aa>
    37e2:	2800      	cmp	r0, #0
    37e4:	d02a      	beq.n	383c <_vfiprintf_r+0x12c>
    37e6:	9309      	str	r3, [sp, #36]	; 0x24
    37e8:	e028      	b.n	383c <_vfiprintf_r+0x12c>
    37ea:	4b51      	ldr	r3, [pc, #324]	; (3930 <_vfiprintf_r+0x220>)
    37ec:	429f      	cmp	r7, r3
    37ee:	d101      	bne.n	37f4 <_vfiprintf_r+0xe4>
    37f0:	68b7      	ldr	r7, [r6, #8]
    37f2:	e79e      	b.n	3732 <_vfiprintf_r+0x22>
    37f4:	4b4f      	ldr	r3, [pc, #316]	; (3934 <_vfiprintf_r+0x224>)
    37f6:	429f      	cmp	r7, r3
    37f8:	d19b      	bne.n	3732 <_vfiprintf_r+0x22>
    37fa:	68f7      	ldr	r7, [r6, #12]
    37fc:	e799      	b.n	3732 <_vfiprintf_r+0x22>
    37fe:	0039      	movs	r1, r7
    3800:	0030      	movs	r0, r6
    3802:	f7ff fc3b 	bl	307c <__swsetup_r>
    3806:	2800      	cmp	r0, #0
    3808:	d099      	beq.n	373e <_vfiprintf_r+0x2e>
    380a:	2001      	movs	r0, #1
    380c:	4240      	negs	r0, r0
    380e:	b01f      	add	sp, #124	; 0x7c
    3810:	bdf0      	pop	{r4, r5, r6, r7, pc}
    3812:	2b25      	cmp	r3, #37	; 0x25
    3814:	d09f      	beq.n	3756 <_vfiprintf_r+0x46>
    3816:	3401      	adds	r4, #1
    3818:	e79a      	b.n	3750 <_vfiprintf_r+0x40>
    381a:	4b44      	ldr	r3, [pc, #272]	; (392c <_vfiprintf_r+0x21c>)
    381c:	6829      	ldr	r1, [r5, #0]
    381e:	1ac0      	subs	r0, r0, r3
    3820:	2301      	movs	r3, #1
    3822:	4083      	lsls	r3, r0
    3824:	430b      	orrs	r3, r1
    3826:	602b      	str	r3, [r5, #0]
    3828:	4664      	mov	r4, ip
    382a:	e7b7      	b.n	379c <_vfiprintf_r+0x8c>
    382c:	9b05      	ldr	r3, [sp, #20]
    382e:	1d18      	adds	r0, r3, #4
    3830:	681b      	ldr	r3, [r3, #0]
    3832:	9005      	str	r0, [sp, #20]
    3834:	2b00      	cmp	r3, #0
    3836:	db3a      	blt.n	38ae <_vfiprintf_r+0x19e>
    3838:	9309      	str	r3, [sp, #36]	; 0x24
    383a:	4664      	mov	r4, ip
    383c:	7823      	ldrb	r3, [r4, #0]
    383e:	2b2e      	cmp	r3, #46	; 0x2e
    3840:	d10b      	bne.n	385a <_vfiprintf_r+0x14a>
    3842:	7863      	ldrb	r3, [r4, #1]
    3844:	1c62      	adds	r2, r4, #1
    3846:	2b2a      	cmp	r3, #42	; 0x2a
    3848:	d13f      	bne.n	38ca <_vfiprintf_r+0x1ba>
    384a:	9b05      	ldr	r3, [sp, #20]
    384c:	3402      	adds	r4, #2
    384e:	1d1a      	adds	r2, r3, #4
    3850:	681b      	ldr	r3, [r3, #0]
    3852:	9205      	str	r2, [sp, #20]
    3854:	2b00      	cmp	r3, #0
    3856:	db35      	blt.n	38c4 <_vfiprintf_r+0x1b4>
    3858:	9307      	str	r3, [sp, #28]
    385a:	7821      	ldrb	r1, [r4, #0]
    385c:	2203      	movs	r2, #3
    385e:	4836      	ldr	r0, [pc, #216]	; (3938 <_vfiprintf_r+0x228>)
    3860:	f000 fab6 	bl	3dd0 <memchr>
    3864:	2800      	cmp	r0, #0
    3866:	d007      	beq.n	3878 <_vfiprintf_r+0x168>
    3868:	4b33      	ldr	r3, [pc, #204]	; (3938 <_vfiprintf_r+0x228>)
    386a:	682a      	ldr	r2, [r5, #0]
    386c:	1ac0      	subs	r0, r0, r3
    386e:	2340      	movs	r3, #64	; 0x40
    3870:	4083      	lsls	r3, r0
    3872:	4313      	orrs	r3, r2
    3874:	602b      	str	r3, [r5, #0]
    3876:	3401      	adds	r4, #1
    3878:	7821      	ldrb	r1, [r4, #0]
    387a:	1c63      	adds	r3, r4, #1
    387c:	2206      	movs	r2, #6
    387e:	482f      	ldr	r0, [pc, #188]	; (393c <_vfiprintf_r+0x22c>)
    3880:	9302      	str	r3, [sp, #8]
    3882:	7629      	strb	r1, [r5, #24]
    3884:	f000 faa4 	bl	3dd0 <memchr>
    3888:	2800      	cmp	r0, #0
    388a:	d044      	beq.n	3916 <_vfiprintf_r+0x206>
    388c:	4b2c      	ldr	r3, [pc, #176]	; (3940 <_vfiprintf_r+0x230>)
    388e:	2b00      	cmp	r3, #0
    3890:	d12f      	bne.n	38f2 <_vfiprintf_r+0x1e2>
    3892:	6829      	ldr	r1, [r5, #0]
    3894:	9b05      	ldr	r3, [sp, #20]
    3896:	2207      	movs	r2, #7
    3898:	05c9      	lsls	r1, r1, #23
    389a:	d528      	bpl.n	38ee <_vfiprintf_r+0x1de>
    389c:	189b      	adds	r3, r3, r2
    389e:	4393      	bics	r3, r2
    38a0:	3308      	adds	r3, #8
    38a2:	9305      	str	r3, [sp, #20]
    38a4:	696b      	ldr	r3, [r5, #20]
    38a6:	9a03      	ldr	r2, [sp, #12]
    38a8:	189b      	adds	r3, r3, r2
    38aa:	616b      	str	r3, [r5, #20]
    38ac:	e74f      	b.n	374e <_vfiprintf_r+0x3e>
    38ae:	425b      	negs	r3, r3
    38b0:	60eb      	str	r3, [r5, #12]
    38b2:	2302      	movs	r3, #2
    38b4:	430b      	orrs	r3, r1
    38b6:	602b      	str	r3, [r5, #0]
    38b8:	e7bf      	b.n	383a <_vfiprintf_r+0x12a>
    38ba:	434b      	muls	r3, r1
    38bc:	3401      	adds	r4, #1
    38be:	189b      	adds	r3, r3, r2
    38c0:	2001      	movs	r0, #1
    38c2:	e789      	b.n	37d8 <_vfiprintf_r+0xc8>
    38c4:	2301      	movs	r3, #1
    38c6:	425b      	negs	r3, r3
    38c8:	e7c6      	b.n	3858 <_vfiprintf_r+0x148>
    38ca:	2300      	movs	r3, #0
    38cc:	0014      	movs	r4, r2
    38ce:	200a      	movs	r0, #10
    38d0:	001a      	movs	r2, r3
    38d2:	606b      	str	r3, [r5, #4]
    38d4:	7821      	ldrb	r1, [r4, #0]
    38d6:	3930      	subs	r1, #48	; 0x30
    38d8:	2909      	cmp	r1, #9
    38da:	d903      	bls.n	38e4 <_vfiprintf_r+0x1d4>
    38dc:	2b00      	cmp	r3, #0
    38de:	d0bc      	beq.n	385a <_vfiprintf_r+0x14a>
    38e0:	9207      	str	r2, [sp, #28]
    38e2:	e7ba      	b.n	385a <_vfiprintf_r+0x14a>
    38e4:	4342      	muls	r2, r0
    38e6:	3401      	adds	r4, #1
    38e8:	1852      	adds	r2, r2, r1
    38ea:	2301      	movs	r3, #1
    38ec:	e7f2      	b.n	38d4 <_vfiprintf_r+0x1c4>
    38ee:	3307      	adds	r3, #7
    38f0:	e7d5      	b.n	389e <_vfiprintf_r+0x18e>
    38f2:	ab05      	add	r3, sp, #20
    38f4:	9300      	str	r3, [sp, #0]
    38f6:	003a      	movs	r2, r7
    38f8:	4b12      	ldr	r3, [pc, #72]	; (3944 <_vfiprintf_r+0x234>)
    38fa:	0029      	movs	r1, r5
    38fc:	0030      	movs	r0, r6
    38fe:	e000      	b.n	3902 <_vfiprintf_r+0x1f2>
    3900:	bf00      	nop
    3902:	9003      	str	r0, [sp, #12]
    3904:	9b03      	ldr	r3, [sp, #12]
    3906:	3301      	adds	r3, #1
    3908:	d1cc      	bne.n	38a4 <_vfiprintf_r+0x194>
    390a:	89bb      	ldrh	r3, [r7, #12]
    390c:	065b      	lsls	r3, r3, #25
    390e:	d500      	bpl.n	3912 <_vfiprintf_r+0x202>
    3910:	e77b      	b.n	380a <_vfiprintf_r+0xfa>
    3912:	980b      	ldr	r0, [sp, #44]	; 0x2c
    3914:	e77b      	b.n	380e <_vfiprintf_r+0xfe>
    3916:	ab05      	add	r3, sp, #20
    3918:	9300      	str	r3, [sp, #0]
    391a:	003a      	movs	r2, r7
    391c:	4b09      	ldr	r3, [pc, #36]	; (3944 <_vfiprintf_r+0x234>)
    391e:	0029      	movs	r1, r5
    3920:	0030      	movs	r0, r6
    3922:	f000 f87f 	bl	3a24 <_printf_i>
    3926:	e7ec      	b.n	3902 <_vfiprintf_r+0x1f2>
    3928:	00003fe8 	.word	0x00003fe8
    392c:	00004028 	.word	0x00004028
    3930:	00004008 	.word	0x00004008
    3934:	00003fc8 	.word	0x00003fc8
    3938:	0000402e 	.word	0x0000402e
    393c:	00004032 	.word	0x00004032
    3940:	00000000 	.word	0x00000000
    3944:	000036eb 	.word	0x000036eb

00003948 <_printf_common>:
    3948:	b5f7      	push	{r0, r1, r2, r4, r5, r6, r7, lr}
    394a:	0015      	movs	r5, r2
    394c:	9301      	str	r3, [sp, #4]
    394e:	688a      	ldr	r2, [r1, #8]
    3950:	690b      	ldr	r3, [r1, #16]
    3952:	9000      	str	r0, [sp, #0]
    3954:	000c      	movs	r4, r1
    3956:	4293      	cmp	r3, r2
    3958:	da00      	bge.n	395c <_printf_common+0x14>
    395a:	0013      	movs	r3, r2
    395c:	0022      	movs	r2, r4
    395e:	602b      	str	r3, [r5, #0]
    3960:	3243      	adds	r2, #67	; 0x43
    3962:	7812      	ldrb	r2, [r2, #0]
    3964:	2a00      	cmp	r2, #0
    3966:	d001      	beq.n	396c <_printf_common+0x24>
    3968:	3301      	adds	r3, #1
    396a:	602b      	str	r3, [r5, #0]
    396c:	6823      	ldr	r3, [r4, #0]
    396e:	069b      	lsls	r3, r3, #26
    3970:	d502      	bpl.n	3978 <_printf_common+0x30>
    3972:	682b      	ldr	r3, [r5, #0]
    3974:	3302      	adds	r3, #2
    3976:	602b      	str	r3, [r5, #0]
    3978:	2706      	movs	r7, #6
    397a:	6823      	ldr	r3, [r4, #0]
    397c:	401f      	ands	r7, r3
    397e:	d027      	beq.n	39d0 <_printf_common+0x88>
    3980:	0023      	movs	r3, r4
    3982:	3343      	adds	r3, #67	; 0x43
    3984:	781b      	ldrb	r3, [r3, #0]
    3986:	1e5a      	subs	r2, r3, #1
    3988:	4193      	sbcs	r3, r2
    398a:	6822      	ldr	r2, [r4, #0]
    398c:	0692      	lsls	r2, r2, #26
    398e:	d430      	bmi.n	39f2 <_printf_common+0xaa>
    3990:	0022      	movs	r2, r4
    3992:	9901      	ldr	r1, [sp, #4]
    3994:	3243      	adds	r2, #67	; 0x43
    3996:	9800      	ldr	r0, [sp, #0]
    3998:	9e08      	ldr	r6, [sp, #32]
    399a:	47b0      	blx	r6
    399c:	1c43      	adds	r3, r0, #1
    399e:	d025      	beq.n	39ec <_printf_common+0xa4>
    39a0:	2306      	movs	r3, #6
    39a2:	6820      	ldr	r0, [r4, #0]
    39a4:	682a      	ldr	r2, [r5, #0]
    39a6:	68e1      	ldr	r1, [r4, #12]
    39a8:	4003      	ands	r3, r0
    39aa:	2500      	movs	r5, #0
    39ac:	2b04      	cmp	r3, #4
    39ae:	d103      	bne.n	39b8 <_printf_common+0x70>
    39b0:	1a8d      	subs	r5, r1, r2
    39b2:	43eb      	mvns	r3, r5
    39b4:	17db      	asrs	r3, r3, #31
    39b6:	401d      	ands	r5, r3
    39b8:	68a3      	ldr	r3, [r4, #8]
    39ba:	6922      	ldr	r2, [r4, #16]
    39bc:	4293      	cmp	r3, r2
    39be:	dd01      	ble.n	39c4 <_printf_common+0x7c>
    39c0:	1a9b      	subs	r3, r3, r2
    39c2:	18ed      	adds	r5, r5, r3
    39c4:	2700      	movs	r7, #0
    39c6:	42bd      	cmp	r5, r7
    39c8:	d120      	bne.n	3a0c <_printf_common+0xc4>
    39ca:	2000      	movs	r0, #0
    39cc:	e010      	b.n	39f0 <_printf_common+0xa8>
    39ce:	3701      	adds	r7, #1
    39d0:	68e3      	ldr	r3, [r4, #12]
    39d2:	682a      	ldr	r2, [r5, #0]
    39d4:	1a9b      	subs	r3, r3, r2
    39d6:	429f      	cmp	r7, r3
    39d8:	dad2      	bge.n	3980 <_printf_common+0x38>
    39da:	0022      	movs	r2, r4
    39dc:	2301      	movs	r3, #1
    39de:	3219      	adds	r2, #25
    39e0:	9901      	ldr	r1, [sp, #4]
    39e2:	9800      	ldr	r0, [sp, #0]
    39e4:	9e08      	ldr	r6, [sp, #32]
    39e6:	47b0      	blx	r6
    39e8:	1c43      	adds	r3, r0, #1
    39ea:	d1f0      	bne.n	39ce <_printf_common+0x86>
    39ec:	2001      	movs	r0, #1
    39ee:	4240      	negs	r0, r0
    39f0:	bdfe      	pop	{r1, r2, r3, r4, r5, r6, r7, pc}
    39f2:	2030      	movs	r0, #48	; 0x30
    39f4:	18e1      	adds	r1, r4, r3
    39f6:	3143      	adds	r1, #67	; 0x43
    39f8:	7008      	strb	r0, [r1, #0]
    39fa:	0021      	movs	r1, r4
    39fc:	1c5a      	adds	r2, r3, #1
    39fe:	3145      	adds	r1, #69	; 0x45
    3a00:	7809      	ldrb	r1, [r1, #0]
    3a02:	18a2      	adds	r2, r4, r2
    3a04:	3243      	adds	r2, #67	; 0x43
    3a06:	3302      	adds	r3, #2
    3a08:	7011      	strb	r1, [r2, #0]
    3a0a:	e7c1      	b.n	3990 <_printf_common+0x48>
    3a0c:	0022      	movs	r2, r4
    3a0e:	2301      	movs	r3, #1
    3a10:	321a      	adds	r2, #26
    3a12:	9901      	ldr	r1, [sp, #4]
    3a14:	9800      	ldr	r0, [sp, #0]
    3a16:	9e08      	ldr	r6, [sp, #32]
    3a18:	47b0      	blx	r6
    3a1a:	1c43      	adds	r3, r0, #1
    3a1c:	d0e6      	beq.n	39ec <_printf_common+0xa4>
    3a1e:	3701      	adds	r7, #1
    3a20:	e7d1      	b.n	39c6 <_printf_common+0x7e>
	...

00003a24 <_printf_i>:
    3a24:	b5f0      	push	{r4, r5, r6, r7, lr}
    3a26:	b08b      	sub	sp, #44	; 0x2c
    3a28:	9206      	str	r2, [sp, #24]
    3a2a:	000a      	movs	r2, r1
    3a2c:	3243      	adds	r2, #67	; 0x43
    3a2e:	9307      	str	r3, [sp, #28]
    3a30:	9005      	str	r0, [sp, #20]
    3a32:	9204      	str	r2, [sp, #16]
    3a34:	7e0a      	ldrb	r2, [r1, #24]
    3a36:	000c      	movs	r4, r1
    3a38:	9b10      	ldr	r3, [sp, #64]	; 0x40
    3a3a:	2a6e      	cmp	r2, #110	; 0x6e
    3a3c:	d100      	bne.n	3a40 <_printf_i+0x1c>
    3a3e:	e08f      	b.n	3b60 <_printf_i+0x13c>
    3a40:	d817      	bhi.n	3a72 <_printf_i+0x4e>
    3a42:	2a63      	cmp	r2, #99	; 0x63
    3a44:	d02c      	beq.n	3aa0 <_printf_i+0x7c>
    3a46:	d808      	bhi.n	3a5a <_printf_i+0x36>
    3a48:	2a00      	cmp	r2, #0
    3a4a:	d100      	bne.n	3a4e <_printf_i+0x2a>
    3a4c:	e099      	b.n	3b82 <_printf_i+0x15e>
    3a4e:	2a58      	cmp	r2, #88	; 0x58
    3a50:	d054      	beq.n	3afc <_printf_i+0xd8>
    3a52:	0026      	movs	r6, r4
    3a54:	3642      	adds	r6, #66	; 0x42
    3a56:	7032      	strb	r2, [r6, #0]
    3a58:	e029      	b.n	3aae <_printf_i+0x8a>
    3a5a:	2a64      	cmp	r2, #100	; 0x64
    3a5c:	d001      	beq.n	3a62 <_printf_i+0x3e>
    3a5e:	2a69      	cmp	r2, #105	; 0x69
    3a60:	d1f7      	bne.n	3a52 <_printf_i+0x2e>
    3a62:	6821      	ldr	r1, [r4, #0]
    3a64:	681a      	ldr	r2, [r3, #0]
    3a66:	0608      	lsls	r0, r1, #24
    3a68:	d523      	bpl.n	3ab2 <_printf_i+0x8e>
    3a6a:	1d11      	adds	r1, r2, #4
    3a6c:	6019      	str	r1, [r3, #0]
    3a6e:	6815      	ldr	r5, [r2, #0]
    3a70:	e025      	b.n	3abe <_printf_i+0x9a>
    3a72:	2a73      	cmp	r2, #115	; 0x73
    3a74:	d100      	bne.n	3a78 <_printf_i+0x54>
    3a76:	e088      	b.n	3b8a <_printf_i+0x166>
    3a78:	d808      	bhi.n	3a8c <_printf_i+0x68>
    3a7a:	2a6f      	cmp	r2, #111	; 0x6f
    3a7c:	d029      	beq.n	3ad2 <_printf_i+0xae>
    3a7e:	2a70      	cmp	r2, #112	; 0x70
    3a80:	d1e7      	bne.n	3a52 <_printf_i+0x2e>
    3a82:	2220      	movs	r2, #32
    3a84:	6809      	ldr	r1, [r1, #0]
    3a86:	430a      	orrs	r2, r1
    3a88:	6022      	str	r2, [r4, #0]
    3a8a:	e003      	b.n	3a94 <_printf_i+0x70>
    3a8c:	2a75      	cmp	r2, #117	; 0x75
    3a8e:	d020      	beq.n	3ad2 <_printf_i+0xae>
    3a90:	2a78      	cmp	r2, #120	; 0x78
    3a92:	d1de      	bne.n	3a52 <_printf_i+0x2e>
    3a94:	0022      	movs	r2, r4
    3a96:	2178      	movs	r1, #120	; 0x78
    3a98:	3245      	adds	r2, #69	; 0x45
    3a9a:	7011      	strb	r1, [r2, #0]
    3a9c:	4a6c      	ldr	r2, [pc, #432]	; (3c50 <_printf_i+0x22c>)
    3a9e:	e030      	b.n	3b02 <_printf_i+0xde>
    3aa0:	000e      	movs	r6, r1
    3aa2:	681a      	ldr	r2, [r3, #0]
    3aa4:	3642      	adds	r6, #66	; 0x42
    3aa6:	1d11      	adds	r1, r2, #4
    3aa8:	6019      	str	r1, [r3, #0]
    3aaa:	6813      	ldr	r3, [r2, #0]
    3aac:	7033      	strb	r3, [r6, #0]
    3aae:	2301      	movs	r3, #1
    3ab0:	e079      	b.n	3ba6 <_printf_i+0x182>
    3ab2:	0649      	lsls	r1, r1, #25
    3ab4:	d5d9      	bpl.n	3a6a <_printf_i+0x46>
    3ab6:	1d11      	adds	r1, r2, #4
    3ab8:	6019      	str	r1, [r3, #0]
    3aba:	2300      	movs	r3, #0
    3abc:	5ed5      	ldrsh	r5, [r2, r3]
    3abe:	2d00      	cmp	r5, #0
    3ac0:	da03      	bge.n	3aca <_printf_i+0xa6>
    3ac2:	232d      	movs	r3, #45	; 0x2d
    3ac4:	9a04      	ldr	r2, [sp, #16]
    3ac6:	426d      	negs	r5, r5
    3ac8:	7013      	strb	r3, [r2, #0]
    3aca:	4b62      	ldr	r3, [pc, #392]	; (3c54 <_printf_i+0x230>)
    3acc:	270a      	movs	r7, #10
    3ace:	9303      	str	r3, [sp, #12]
    3ad0:	e02f      	b.n	3b32 <_printf_i+0x10e>
    3ad2:	6820      	ldr	r0, [r4, #0]
    3ad4:	6819      	ldr	r1, [r3, #0]
    3ad6:	0605      	lsls	r5, r0, #24
    3ad8:	d503      	bpl.n	3ae2 <_printf_i+0xbe>
    3ada:	1d08      	adds	r0, r1, #4
    3adc:	6018      	str	r0, [r3, #0]
    3ade:	680d      	ldr	r5, [r1, #0]
    3ae0:	e005      	b.n	3aee <_printf_i+0xca>
    3ae2:	0640      	lsls	r0, r0, #25
    3ae4:	d5f9      	bpl.n	3ada <_printf_i+0xb6>
    3ae6:	680d      	ldr	r5, [r1, #0]
    3ae8:	1d08      	adds	r0, r1, #4
    3aea:	6018      	str	r0, [r3, #0]
    3aec:	b2ad      	uxth	r5, r5
    3aee:	4b59      	ldr	r3, [pc, #356]	; (3c54 <_printf_i+0x230>)
    3af0:	2708      	movs	r7, #8
    3af2:	9303      	str	r3, [sp, #12]
    3af4:	2a6f      	cmp	r2, #111	; 0x6f
    3af6:	d018      	beq.n	3b2a <_printf_i+0x106>
    3af8:	270a      	movs	r7, #10
    3afa:	e016      	b.n	3b2a <_printf_i+0x106>
    3afc:	3145      	adds	r1, #69	; 0x45
    3afe:	700a      	strb	r2, [r1, #0]
    3b00:	4a54      	ldr	r2, [pc, #336]	; (3c54 <_printf_i+0x230>)
    3b02:	9203      	str	r2, [sp, #12]
    3b04:	681a      	ldr	r2, [r3, #0]
    3b06:	6821      	ldr	r1, [r4, #0]
    3b08:	1d10      	adds	r0, r2, #4
    3b0a:	6018      	str	r0, [r3, #0]
    3b0c:	6815      	ldr	r5, [r2, #0]
    3b0e:	0608      	lsls	r0, r1, #24
    3b10:	d522      	bpl.n	3b58 <_printf_i+0x134>
    3b12:	07cb      	lsls	r3, r1, #31
    3b14:	d502      	bpl.n	3b1c <_printf_i+0xf8>
    3b16:	2320      	movs	r3, #32
    3b18:	4319      	orrs	r1, r3
    3b1a:	6021      	str	r1, [r4, #0]
    3b1c:	2710      	movs	r7, #16
    3b1e:	2d00      	cmp	r5, #0
    3b20:	d103      	bne.n	3b2a <_printf_i+0x106>
    3b22:	2320      	movs	r3, #32
    3b24:	6822      	ldr	r2, [r4, #0]
    3b26:	439a      	bics	r2, r3
    3b28:	6022      	str	r2, [r4, #0]
    3b2a:	0023      	movs	r3, r4
    3b2c:	2200      	movs	r2, #0
    3b2e:	3343      	adds	r3, #67	; 0x43
    3b30:	701a      	strb	r2, [r3, #0]
    3b32:	6863      	ldr	r3, [r4, #4]
    3b34:	60a3      	str	r3, [r4, #8]
    3b36:	2b00      	cmp	r3, #0
    3b38:	db5c      	blt.n	3bf4 <_printf_i+0x1d0>
    3b3a:	2204      	movs	r2, #4
    3b3c:	6821      	ldr	r1, [r4, #0]
    3b3e:	4391      	bics	r1, r2
    3b40:	6021      	str	r1, [r4, #0]
    3b42:	2d00      	cmp	r5, #0
    3b44:	d158      	bne.n	3bf8 <_printf_i+0x1d4>
    3b46:	9e04      	ldr	r6, [sp, #16]
    3b48:	2b00      	cmp	r3, #0
    3b4a:	d064      	beq.n	3c16 <_printf_i+0x1f2>
    3b4c:	0026      	movs	r6, r4
    3b4e:	9b03      	ldr	r3, [sp, #12]
    3b50:	3642      	adds	r6, #66	; 0x42
    3b52:	781b      	ldrb	r3, [r3, #0]
    3b54:	7033      	strb	r3, [r6, #0]
    3b56:	e05e      	b.n	3c16 <_printf_i+0x1f2>
    3b58:	0648      	lsls	r0, r1, #25
    3b5a:	d5da      	bpl.n	3b12 <_printf_i+0xee>
    3b5c:	b2ad      	uxth	r5, r5
    3b5e:	e7d8      	b.n	3b12 <_printf_i+0xee>
    3b60:	6809      	ldr	r1, [r1, #0]
    3b62:	681a      	ldr	r2, [r3, #0]
    3b64:	0608      	lsls	r0, r1, #24
    3b66:	d505      	bpl.n	3b74 <_printf_i+0x150>
    3b68:	1d11      	adds	r1, r2, #4
    3b6a:	6019      	str	r1, [r3, #0]
    3b6c:	6813      	ldr	r3, [r2, #0]
    3b6e:	6962      	ldr	r2, [r4, #20]
    3b70:	601a      	str	r2, [r3, #0]
    3b72:	e006      	b.n	3b82 <_printf_i+0x15e>
    3b74:	0649      	lsls	r1, r1, #25
    3b76:	d5f7      	bpl.n	3b68 <_printf_i+0x144>
    3b78:	1d11      	adds	r1, r2, #4
    3b7a:	6019      	str	r1, [r3, #0]
    3b7c:	6813      	ldr	r3, [r2, #0]
    3b7e:	8aa2      	ldrh	r2, [r4, #20]
    3b80:	801a      	strh	r2, [r3, #0]
    3b82:	2300      	movs	r3, #0
    3b84:	9e04      	ldr	r6, [sp, #16]
    3b86:	6123      	str	r3, [r4, #16]
    3b88:	e054      	b.n	3c34 <_printf_i+0x210>
    3b8a:	681a      	ldr	r2, [r3, #0]
    3b8c:	1d11      	adds	r1, r2, #4
    3b8e:	6019      	str	r1, [r3, #0]
    3b90:	6816      	ldr	r6, [r2, #0]
    3b92:	2100      	movs	r1, #0
    3b94:	6862      	ldr	r2, [r4, #4]
    3b96:	0030      	movs	r0, r6
    3b98:	f000 f91a 	bl	3dd0 <memchr>
    3b9c:	2800      	cmp	r0, #0
    3b9e:	d001      	beq.n	3ba4 <_printf_i+0x180>
    3ba0:	1b80      	subs	r0, r0, r6
    3ba2:	6060      	str	r0, [r4, #4]
    3ba4:	6863      	ldr	r3, [r4, #4]
    3ba6:	6123      	str	r3, [r4, #16]
    3ba8:	2300      	movs	r3, #0
    3baa:	9a04      	ldr	r2, [sp, #16]
    3bac:	7013      	strb	r3, [r2, #0]
    3bae:	e041      	b.n	3c34 <_printf_i+0x210>
    3bb0:	6923      	ldr	r3, [r4, #16]
    3bb2:	0032      	movs	r2, r6
    3bb4:	9906      	ldr	r1, [sp, #24]
    3bb6:	9805      	ldr	r0, [sp, #20]
    3bb8:	9d07      	ldr	r5, [sp, #28]
    3bba:	47a8      	blx	r5
    3bbc:	1c43      	adds	r3, r0, #1
    3bbe:	d043      	beq.n	3c48 <_printf_i+0x224>
    3bc0:	6823      	ldr	r3, [r4, #0]
    3bc2:	2500      	movs	r5, #0
    3bc4:	079b      	lsls	r3, r3, #30
    3bc6:	d40f      	bmi.n	3be8 <_printf_i+0x1c4>
    3bc8:	9b09      	ldr	r3, [sp, #36]	; 0x24
    3bca:	68e0      	ldr	r0, [r4, #12]
    3bcc:	4298      	cmp	r0, r3
    3bce:	da3d      	bge.n	3c4c <_printf_i+0x228>
    3bd0:	0018      	movs	r0, r3
    3bd2:	e03b      	b.n	3c4c <_printf_i+0x228>
    3bd4:	0022      	movs	r2, r4
    3bd6:	2301      	movs	r3, #1
    3bd8:	3219      	adds	r2, #25
    3bda:	9906      	ldr	r1, [sp, #24]
    3bdc:	9805      	ldr	r0, [sp, #20]
    3bde:	9e07      	ldr	r6, [sp, #28]
    3be0:	47b0      	blx	r6
    3be2:	1c43      	adds	r3, r0, #1
    3be4:	d030      	beq.n	3c48 <_printf_i+0x224>
    3be6:	3501      	adds	r5, #1
    3be8:	68e3      	ldr	r3, [r4, #12]
    3bea:	9a09      	ldr	r2, [sp, #36]	; 0x24
    3bec:	1a9b      	subs	r3, r3, r2
    3bee:	429d      	cmp	r5, r3
    3bf0:	dbf0      	blt.n	3bd4 <_printf_i+0x1b0>
    3bf2:	e7e9      	b.n	3bc8 <_printf_i+0x1a4>
    3bf4:	2d00      	cmp	r5, #0
    3bf6:	d0a9      	beq.n	3b4c <_printf_i+0x128>
    3bf8:	9e04      	ldr	r6, [sp, #16]
    3bfa:	0028      	movs	r0, r5
    3bfc:	0039      	movs	r1, r7
    3bfe:	f7fd fa17 	bl	1030 <__aeabi_uidivmod>
    3c02:	9b03      	ldr	r3, [sp, #12]
    3c04:	3e01      	subs	r6, #1
    3c06:	5c5b      	ldrb	r3, [r3, r1]
    3c08:	0028      	movs	r0, r5
    3c0a:	7033      	strb	r3, [r6, #0]
    3c0c:	0039      	movs	r1, r7
    3c0e:	f7fd f9d8 	bl	fc2 <__aeabi_uidiv>
    3c12:	1e05      	subs	r5, r0, #0
    3c14:	d1f1      	bne.n	3bfa <_printf_i+0x1d6>
    3c16:	2f08      	cmp	r7, #8
    3c18:	d109      	bne.n	3c2e <_printf_i+0x20a>
    3c1a:	6823      	ldr	r3, [r4, #0]
    3c1c:	07db      	lsls	r3, r3, #31
    3c1e:	d506      	bpl.n	3c2e <_printf_i+0x20a>
    3c20:	6863      	ldr	r3, [r4, #4]
    3c22:	6922      	ldr	r2, [r4, #16]
    3c24:	4293      	cmp	r3, r2
    3c26:	dc02      	bgt.n	3c2e <_printf_i+0x20a>
    3c28:	2330      	movs	r3, #48	; 0x30
    3c2a:	3e01      	subs	r6, #1
    3c2c:	7033      	strb	r3, [r6, #0]
    3c2e:	9b04      	ldr	r3, [sp, #16]
    3c30:	1b9b      	subs	r3, r3, r6
    3c32:	6123      	str	r3, [r4, #16]
    3c34:	9b07      	ldr	r3, [sp, #28]
    3c36:	aa09      	add	r2, sp, #36	; 0x24
    3c38:	9300      	str	r3, [sp, #0]
    3c3a:	0021      	movs	r1, r4
    3c3c:	9b06      	ldr	r3, [sp, #24]
    3c3e:	9805      	ldr	r0, [sp, #20]
    3c40:	f7ff fe82 	bl	3948 <_printf_common>
    3c44:	1c43      	adds	r3, r0, #1
    3c46:	d1b3      	bne.n	3bb0 <_printf_i+0x18c>
    3c48:	2001      	movs	r0, #1
    3c4a:	4240      	negs	r0, r0
    3c4c:	b00b      	add	sp, #44	; 0x2c
    3c4e:	bdf0      	pop	{r4, r5, r6, r7, pc}
    3c50:	0000404a 	.word	0x0000404a
    3c54:	00004039 	.word	0x00004039

00003c58 <_sbrk_r>:
    3c58:	2300      	movs	r3, #0
    3c5a:	b570      	push	{r4, r5, r6, lr}
    3c5c:	4c06      	ldr	r4, [pc, #24]	; (3c78 <_sbrk_r+0x20>)
    3c5e:	0005      	movs	r5, r0
    3c60:	0008      	movs	r0, r1
    3c62:	6023      	str	r3, [r4, #0]
    3c64:	f7fc ff74 	bl	b50 <_sbrk>
    3c68:	1c43      	adds	r3, r0, #1
    3c6a:	d103      	bne.n	3c74 <_sbrk_r+0x1c>
    3c6c:	6823      	ldr	r3, [r4, #0]
    3c6e:	2b00      	cmp	r3, #0
    3c70:	d000      	beq.n	3c74 <_sbrk_r+0x1c>
    3c72:	602b      	str	r3, [r5, #0]
    3c74:	bd70      	pop	{r4, r5, r6, pc}
    3c76:	46c0      	nop			; (mov r8, r8)
    3c78:	200005ac 	.word	0x200005ac

00003c7c <__sread>:
    3c7c:	b570      	push	{r4, r5, r6, lr}
    3c7e:	000c      	movs	r4, r1
    3c80:	250e      	movs	r5, #14
    3c82:	5f49      	ldrsh	r1, [r1, r5]
    3c84:	f000 f8b2 	bl	3dec <_read_r>
    3c88:	2800      	cmp	r0, #0
    3c8a:	db03      	blt.n	3c94 <__sread+0x18>
    3c8c:	6d63      	ldr	r3, [r4, #84]	; 0x54
    3c8e:	181b      	adds	r3, r3, r0
    3c90:	6563      	str	r3, [r4, #84]	; 0x54
    3c92:	bd70      	pop	{r4, r5, r6, pc}
    3c94:	89a3      	ldrh	r3, [r4, #12]
    3c96:	4a02      	ldr	r2, [pc, #8]	; (3ca0 <__sread+0x24>)
    3c98:	4013      	ands	r3, r2
    3c9a:	81a3      	strh	r3, [r4, #12]
    3c9c:	e7f9      	b.n	3c92 <__sread+0x16>
    3c9e:	46c0      	nop			; (mov r8, r8)
    3ca0:	ffffefff 	.word	0xffffefff

00003ca4 <__swrite>:
    3ca4:	b5f8      	push	{r3, r4, r5, r6, r7, lr}
    3ca6:	001f      	movs	r7, r3
    3ca8:	898b      	ldrh	r3, [r1, #12]
    3caa:	0005      	movs	r5, r0
    3cac:	000c      	movs	r4, r1
    3cae:	0016      	movs	r6, r2
    3cb0:	05db      	lsls	r3, r3, #23
    3cb2:	d505      	bpl.n	3cc0 <__swrite+0x1c>
    3cb4:	230e      	movs	r3, #14
    3cb6:	5ec9      	ldrsh	r1, [r1, r3]
    3cb8:	2200      	movs	r2, #0
    3cba:	2302      	movs	r3, #2
    3cbc:	f000 f874 	bl	3da8 <_lseek_r>
    3cc0:	89a3      	ldrh	r3, [r4, #12]
    3cc2:	4a05      	ldr	r2, [pc, #20]	; (3cd8 <__swrite+0x34>)
    3cc4:	0028      	movs	r0, r5
    3cc6:	4013      	ands	r3, r2
    3cc8:	81a3      	strh	r3, [r4, #12]
    3cca:	0032      	movs	r2, r6
    3ccc:	230e      	movs	r3, #14
    3cce:	5ee1      	ldrsh	r1, [r4, r3]
    3cd0:	003b      	movs	r3, r7
    3cd2:	f000 f81f 	bl	3d14 <_write_r>
    3cd6:	bdf8      	pop	{r3, r4, r5, r6, r7, pc}
    3cd8:	ffffefff 	.word	0xffffefff

00003cdc <__sseek>:
    3cdc:	b570      	push	{r4, r5, r6, lr}
    3cde:	000c      	movs	r4, r1
    3ce0:	250e      	movs	r5, #14
    3ce2:	5f49      	ldrsh	r1, [r1, r5]
    3ce4:	f000 f860 	bl	3da8 <_lseek_r>
    3ce8:	89a3      	ldrh	r3, [r4, #12]
    3cea:	1c42      	adds	r2, r0, #1
    3cec:	d103      	bne.n	3cf6 <__sseek+0x1a>
    3cee:	4a05      	ldr	r2, [pc, #20]	; (3d04 <__sseek+0x28>)
    3cf0:	4013      	ands	r3, r2
    3cf2:	81a3      	strh	r3, [r4, #12]
    3cf4:	bd70      	pop	{r4, r5, r6, pc}
    3cf6:	2280      	movs	r2, #128	; 0x80
    3cf8:	0152      	lsls	r2, r2, #5
    3cfa:	4313      	orrs	r3, r2
    3cfc:	81a3      	strh	r3, [r4, #12]
    3cfe:	6560      	str	r0, [r4, #84]	; 0x54
    3d00:	e7f8      	b.n	3cf4 <__sseek+0x18>
    3d02:	46c0      	nop			; (mov r8, r8)
    3d04:	ffffefff 	.word	0xffffefff

00003d08 <__sclose>:
    3d08:	b510      	push	{r4, lr}
    3d0a:	230e      	movs	r3, #14
    3d0c:	5ec9      	ldrsh	r1, [r1, r3]
    3d0e:	f000 f815 	bl	3d3c <_close_r>
    3d12:	bd10      	pop	{r4, pc}

00003d14 <_write_r>:
    3d14:	b570      	push	{r4, r5, r6, lr}
    3d16:	0005      	movs	r5, r0
    3d18:	0008      	movs	r0, r1
    3d1a:	0011      	movs	r1, r2
    3d1c:	2200      	movs	r2, #0
    3d1e:	4c06      	ldr	r4, [pc, #24]	; (3d38 <_write_r+0x24>)
    3d20:	6022      	str	r2, [r4, #0]
    3d22:	001a      	movs	r2, r3
    3d24:	f7fd fbf8 	bl	1518 <_write>
    3d28:	1c43      	adds	r3, r0, #1
    3d2a:	d103      	bne.n	3d34 <_write_r+0x20>
    3d2c:	6823      	ldr	r3, [r4, #0]
    3d2e:	2b00      	cmp	r3, #0
    3d30:	d000      	beq.n	3d34 <_write_r+0x20>
    3d32:	602b      	str	r3, [r5, #0]
    3d34:	bd70      	pop	{r4, r5, r6, pc}
    3d36:	46c0      	nop			; (mov r8, r8)
    3d38:	200005ac 	.word	0x200005ac

00003d3c <_close_r>:
    3d3c:	2300      	movs	r3, #0
    3d3e:	b570      	push	{r4, r5, r6, lr}
    3d40:	4c06      	ldr	r4, [pc, #24]	; (3d5c <_close_r+0x20>)
    3d42:	0005      	movs	r5, r0
    3d44:	0008      	movs	r0, r1
    3d46:	6023      	str	r3, [r4, #0]
    3d48:	f7fc ff14 	bl	b74 <_close>
    3d4c:	1c43      	adds	r3, r0, #1
    3d4e:	d103      	bne.n	3d58 <_close_r+0x1c>
    3d50:	6823      	ldr	r3, [r4, #0]
    3d52:	2b00      	cmp	r3, #0
    3d54:	d000      	beq.n	3d58 <_close_r+0x1c>
    3d56:	602b      	str	r3, [r5, #0]
    3d58:	bd70      	pop	{r4, r5, r6, pc}
    3d5a:	46c0      	nop			; (mov r8, r8)
    3d5c:	200005ac 	.word	0x200005ac

00003d60 <_fstat_r>:
    3d60:	2300      	movs	r3, #0
    3d62:	b570      	push	{r4, r5, r6, lr}
    3d64:	4c06      	ldr	r4, [pc, #24]	; (3d80 <_fstat_r+0x20>)
    3d66:	0005      	movs	r5, r0
    3d68:	0008      	movs	r0, r1
    3d6a:	0011      	movs	r1, r2
    3d6c:	6023      	str	r3, [r4, #0]
    3d6e:	f7fc ff04 	bl	b7a <_fstat>
    3d72:	1c43      	adds	r3, r0, #1
    3d74:	d103      	bne.n	3d7e <_fstat_r+0x1e>
    3d76:	6823      	ldr	r3, [r4, #0]
    3d78:	2b00      	cmp	r3, #0
    3d7a:	d000      	beq.n	3d7e <_fstat_r+0x1e>
    3d7c:	602b      	str	r3, [r5, #0]
    3d7e:	bd70      	pop	{r4, r5, r6, pc}
    3d80:	200005ac 	.word	0x200005ac

00003d84 <_isatty_r>:
    3d84:	2300      	movs	r3, #0
    3d86:	b570      	push	{r4, r5, r6, lr}
    3d88:	4c06      	ldr	r4, [pc, #24]	; (3da4 <_isatty_r+0x20>)
    3d8a:	0005      	movs	r5, r0
    3d8c:	0008      	movs	r0, r1
    3d8e:	6023      	str	r3, [r4, #0]
    3d90:	f7fc fef8 	bl	b84 <_isatty>
    3d94:	1c43      	adds	r3, r0, #1
    3d96:	d103      	bne.n	3da0 <_isatty_r+0x1c>
    3d98:	6823      	ldr	r3, [r4, #0]
    3d9a:	2b00      	cmp	r3, #0
    3d9c:	d000      	beq.n	3da0 <_isatty_r+0x1c>
    3d9e:	602b      	str	r3, [r5, #0]
    3da0:	bd70      	pop	{r4, r5, r6, pc}
    3da2:	46c0      	nop			; (mov r8, r8)
    3da4:	200005ac 	.word	0x200005ac

00003da8 <_lseek_r>:
    3da8:	b570      	push	{r4, r5, r6, lr}
    3daa:	0005      	movs	r5, r0
    3dac:	0008      	movs	r0, r1
    3dae:	0011      	movs	r1, r2
    3db0:	2200      	movs	r2, #0
    3db2:	4c06      	ldr	r4, [pc, #24]	; (3dcc <_lseek_r+0x24>)
    3db4:	6022      	str	r2, [r4, #0]
    3db6:	001a      	movs	r2, r3
    3db8:	f7fc fee6 	bl	b88 <_lseek>
    3dbc:	1c43      	adds	r3, r0, #1
    3dbe:	d103      	bne.n	3dc8 <_lseek_r+0x20>
    3dc0:	6823      	ldr	r3, [r4, #0]
    3dc2:	2b00      	cmp	r3, #0
    3dc4:	d000      	beq.n	3dc8 <_lseek_r+0x20>
    3dc6:	602b      	str	r3, [r5, #0]
    3dc8:	bd70      	pop	{r4, r5, r6, pc}
    3dca:	46c0      	nop			; (mov r8, r8)
    3dcc:	200005ac 	.word	0x200005ac

00003dd0 <memchr>:
    3dd0:	b2c9      	uxtb	r1, r1
    3dd2:	1882      	adds	r2, r0, r2
    3dd4:	4290      	cmp	r0, r2
    3dd6:	d101      	bne.n	3ddc <memchr+0xc>
    3dd8:	2000      	movs	r0, #0
    3dda:	4770      	bx	lr
    3ddc:	7803      	ldrb	r3, [r0, #0]
    3dde:	428b      	cmp	r3, r1
    3de0:	d0fb      	beq.n	3dda <memchr+0xa>
    3de2:	3001      	adds	r0, #1
    3de4:	e7f6      	b.n	3dd4 <memchr+0x4>

00003de6 <__malloc_lock>:
    3de6:	4770      	bx	lr

00003de8 <__malloc_unlock>:
    3de8:	4770      	bx	lr
	...

00003dec <_read_r>:
    3dec:	b570      	push	{r4, r5, r6, lr}
    3dee:	0005      	movs	r5, r0
    3df0:	0008      	movs	r0, r1
    3df2:	0011      	movs	r1, r2
    3df4:	2200      	movs	r2, #0
    3df6:	4c06      	ldr	r4, [pc, #24]	; (3e10 <_read_r+0x24>)
    3df8:	6022      	str	r2, [r4, #0]
    3dfa:	001a      	movs	r2, r3
    3dfc:	f7fd fb78 	bl	14f0 <_read>
    3e00:	1c43      	adds	r3, r0, #1
    3e02:	d103      	bne.n	3e0c <_read_r+0x20>
    3e04:	6823      	ldr	r3, [r4, #0]
    3e06:	2b00      	cmp	r3, #0
    3e08:	d000      	beq.n	3e0c <_read_r+0x20>
    3e0a:	602b      	str	r3, [r5, #0]
    3e0c:	bd70      	pop	{r4, r5, r6, pc}
    3e0e:	46c0      	nop			; (mov r8, r8)
    3e10:	200005ac 	.word	0x200005ac
    3e14:	682f2e2e 	.word	0x682f2e2e
    3e18:	732f6c61 	.word	0x732f6c61
    3e1c:	682f6372 	.word	0x682f6372
    3e20:	615f6c61 	.word	0x615f6c61
    3e24:	735f6364 	.word	0x735f6364
    3e28:	2e636e79 	.word	0x2e636e79
    3e2c:	00000063 	.word	0x00000063
    3e30:	682f2e2e 	.word	0x682f2e2e
    3e34:	732f6c61 	.word	0x732f6c61
    3e38:	682f6372 	.word	0x682f6372
    3e3c:	635f6c61 	.word	0x635f6c61
    3e40:	615f6e61 	.word	0x615f6e61
    3e44:	636e7973 	.word	0x636e7973
    3e48:	0000632e 	.word	0x0000632e
    3e4c:	682f2e2e 	.word	0x682f2e2e
    3e50:	732f6c61 	.word	0x732f6c61
    3e54:	682f6372 	.word	0x682f6372
    3e58:	695f6c61 	.word	0x695f6c61
    3e5c:	00632e6f 	.word	0x00632e6f
    3e60:	682f2e2e 	.word	0x682f2e2e
    3e64:	732f6c61 	.word	0x732f6c61
    3e68:	682f6372 	.word	0x682f6372
    3e6c:	745f6c61 	.word	0x745f6c61
    3e70:	5f706d65 	.word	0x5f706d65
    3e74:	636e7973 	.word	0x636e7973
    3e78:	0000632e 	.word	0x0000632e
    3e7c:	682f2e2e 	.word	0x682f2e2e
    3e80:	732f6c61 	.word	0x732f6c61
    3e84:	682f6372 	.word	0x682f6372
    3e88:	755f6c61 	.word	0x755f6c61
    3e8c:	74726173 	.word	0x74726173
    3e90:	6e79735f 	.word	0x6e79735f
    3e94:	00632e63 	.word	0x00632e63

00003e98 <_adcs>:
    3e98:	03060000 18000000 3f080010 00000000     ...........?....
	...
    3eb4:	682f2e2e 612f6c70 682f6364 615f6c70     ../hpl/adc/hpl_a
    3ec4:	632e6364 00000000 682f2e2e 732f6c70     dc.c....../hpl/s
    3ed4:	6f637265 70682f6d 65735f6c 6d6f6372     ercom/hpl_sercom
    3ee4:	0000632e 20434441 25204843 25203a75     .c..ADC CH %u: %
    3ef4:	25202c75 25202c75 75252e75 0d632520     u, %u, %u.%u %c.
    3f04:	0000000a 74696e69 6e6f6420 00000d65     ....init done...
    3f14:	20636461 3a736572 2c692520 0d692520     adc res: %i, %i.
    3f24:	0000000a 706d6574 7525203a 000a0d6c     ....temp: %ul...
    3f34:	20646e65 706f6f6c 0d752520 0000000a     end loop %u.....
    3f44:	0000176c 000016bc 000016bc 000016ba     l...............
    3f54:	0000175e 0000175e 00001754 000016ba     ^...^...T.......
    3f64:	0000175e 00001754 0000175e 000016ba     ^...T...^.......
    3f74:	00001764 00001764 00001764 000017f4     d...d...d.......
    3f84:	00001e74 00001d34 00001d34 00001d30     t...4...4...0...
    3f94:	00001e4c 00001e4c 00001e3e 00001d30     L...L...>...0...
    3fa4:	00001e4c 00001e3e 00001e4c 00001d30     L...>...L...0...
    3fb4:	00001e54 00001e54 00001e54 00002058     T...T...T...X ..

00003fc4 <_global_impure_ptr>:
    3fc4:	20000018                                ... 

00003fc8 <__sf_fake_stderr>:
	...

00003fe8 <__sf_fake_stdin>:
	...

00004008 <__sf_fake_stdout>:
	...
    4028:	2b302d23 6c680020 6665004c 47464567     #-0+ .hlL.efgEFG
    4038:	32313000 36353433 41393837 45444342     .0123456789ABCDE
    4048:	31300046 35343332 39383736 64636261     F.0123456789abcd
    4058:	00006665                                ef..

0000405c <_init>:
    405c:	b5f8      	push	{r3, r4, r5, r6, r7, lr}
    405e:	46c0      	nop			; (mov r8, r8)
    4060:	bcf8      	pop	{r3, r4, r5, r6, r7}
    4062:	bc08      	pop	{r3}
    4064:	469e      	mov	lr, r3
    4066:	4770      	bx	lr

00004068 <__init_array_start>:
    4068:	000000e5 	.word	0x000000e5

0000406c <_fini>:
    406c:	b5f8      	push	{r3, r4, r5, r6, r7, lr}
    406e:	46c0      	nop			; (mov r8, r8)
    4070:	bcf8      	pop	{r3, r4, r5, r6, r7}
    4072:	bc08      	pop	{r3}
    4074:	469e      	mov	lr, r3
    4076:	4770      	bx	lr

00004078 <__fini_array_start>:
    4078:	000000bd 	.word	0x000000bd
